XAS99 CROSS-ASSEMBLER   VERSION 1.7.0
**** **** ****     > bouncy.a99
0001               *********************************************************************
0002               *
0003               * Bouncy
0004               *
0005               * For the TI-99/4A home computer.
0006               *
0007               * To be assembled using xas99.
0008               *
0009               * (c) Rasmus Moustgaard 2015 <rasmus.moustgaard@gmail.com>
0010               *
0011               *********************************************************************
0012               
0013               	  DEF	START
0014               
0015               **
0016               * Configuration
0017      0002     NLIVES EQU  2                   * Number of lives
0018      0001     SLEVEL EQU  1                   * Start level
0019      1B58     MAXFRM EQU  7000                * Max frames to complete level
0020               
0021               **
0022               * Conditional assembly config
0023      0001     ANYMPW EQU  1                   * Is any map width allowed?
0024      0000     HSCRL  EQU  0                   * Enable support for horizontal scrolling?
0025      0000     BGTIME EQU  0                   * Use background color to visualize timing?
0026               
0027               **
0028               * Misc memory addresses
0029      8800     VDPRD  EQU  >8800               * VDP read data
0030      8802     VDPSTA EQU  >8802               * VDP status
0031      8C00     VDPWD  EQU  >8C00               * VDP write data
0032      8C02     VDPWA  EQU  >8C02               * VDP set read/write address
0033      83C0     RNDSD  EQU  >83C0               * Random number seed
0034      8400     SOUND  EQU  >8400               * Sound
0035      9000     SPCHRD EQU	>9000
0036      9400     SPCHWT EQU	>9400
0037               
0038               
0039               **
0040               * VDP Memory Map
0041      0000     PTRNTB EQU  >0000               * Pattern table base
0042      0800     PTRNT1 EQU  >0800               * Pattern table part 2
0043      1000     PTRNT2 EQU  >1000               * Pattern table part 3
0044      1800     SPRPTB EQU  >1800               * Sprite pattern table
0045      1F80     SPRATB EQU  >1F80               * Sprite attribute table
0046      2000     COLRTB EQU  >2000               * Color table base
0047      2800     NAMET0 EQU  >2800               * Name table base 0
0048      2B00     FIXPAT EQU  >2B00               * Backup of fixed patterns 112-127
0049      2B80     FIXCOL EQU  >2B80               * Backup of fixed colors 112-127
0050      2C00     NAMET1 EQU  >2C00               * Name table base 1
0051      2F00     FIXMAP EQU  >2F00               * Map of right side panel
0052      3000     NAMET2 EQU  >3000               * Name table base 2
0053      3300     LGMAP  EQU  >3300               * Logo map
0054      3400     NAMET3 EQU  >3400               * Name table base 3
0055      3700     LGPAT  EQU  >3700               * Logo patterns
0056      3B80     LGCOL  EQU  >3B80               * Logo colors
0057               
0058               **
0059               * Scratch pad
0060      8300     WRKSP  EQU  >8300               * Workspace
0061      8320     STACK  EQU  >8320
0062      8301     R0LB   EQU  WRKSP+1             * R0 low byte required for VDP routines
0063      8303     R1LB   EQU  WRKSP+3
0064      8305     R2LB   EQU  WRKSP+5
0065      8307     R3LB   EQU  WRKSP+7
0066      8309     R4LB   EQU  WRKSP+9
0067      830B     R5LB   EQU  WRKSP+11
0068      830D     R6LB   EQU  WRKSP+13
0069      830F     R7LB   EQU  WRKSP+15
0070               *      Memory constants
0071      8330     ONE    EQU  STACK+16            * Constant 1
0072      8332     EIGHT  EQU  ONE+2               * Constant 8
0073      8334     BYTEC0 EQU  EIGHT+2             * Constant >C0
0074      8336     M_MAPW EQU  BYTEC0+2            * Map width
0075               *      Variables
0076      8338     FRAME  EQU  M_MAPW+2            * Frame counter, reset when level begins
0077      833A     SPR5TH EQU  FRAME+2             * Index of the 5th sprite on a line
0078      833C     RANDNO EQU  SPR5TH+2            * Random number
0079      833E     SCRLCT EQU  RANDNO+2            * Counter for when to scroll
0080      8340     SCRLX  EQU  SCRLCT+2            * Horizontal scroll offset
0081      8342     SCRLXV EQU  SCRLX+2             * As SCRLX but for the visible screen
0082      8344     SCRLY  EQU  SCRLXV+2            * Vertical scroll offset
0083      8346     SCRLYO EQU  SCRLY+2             * For saving old value of SCRLY
0084      8348     JMPFRM EQU  SCRLYO+2            * Jump frame
0085      834A     JMP1ST EQU  JMPFRM+2            * Zero if first jump frame, otherwise non-zero
0086      834C     JMPDX  EQU  JMP1ST+2            * X jump direction
0087      834E     JMPDY  EQU  JMPDX+2             * Y jump direction
0088      8350     JMPZ   EQU  JMPDY+2             * Jump z position (height)
0089      8352     JMPLEN EQU  JMPZ+2              * Jump length (0, 1, 2, 3)
0090      8354     AUTJMP EQU  JMPLEN+2            * Flag to indicate beginning of automatic jump
0091      8356     MOVDX  EQU  AUTJMP+2            * Adjustment to x position caused by scrolling
0092      8358     MOVDXV EQU  MOVDX+2             * As MOVDX but for the visible screen
0093      835A     MOVDYV EQU  MOVDXV+2            * Adjustment to y position caused by scrolling
0094      835C     MTOFFS EQU  MOVDYV+2            * Last modified meta tile screen offset
0095      835E     FSPRNO EQU  MTOFFS+2            * Flicker routine sprite number
0096      8360     SCOREH EQU  FSPRNO+2            * Score high word
0097      8362     SCOREL EQU  SCOREH+2            * Score low word
0098      8364     ENERGY EQU  SCOREL+2            * Energy
0099      8366     LIVES  EQU  ENERGY+2            * Lives
0100      8368     LEVEL  EQU  LIVES+2             * Level number
0101      836A     LVLPTR EQU  LEVEL+2             * Level pointer
0102      836C     LVLCMP EQU  LVLPTR+2            * Level completed flag
0103      836E     LVLLST EQU  LVLCMP+2            * Last played level number
0104      8370     DIED   EQU  LVLLST+2            * Died flag
0105      8372     STATUS EQU  DIED+2              * Special status
0106      8374     MTSWPT EQU  STATUS+2            * Meta tile switch list pointer
0107      8376     MTSWTL EQU  MTSWPT+2            * The number of the meta tile displayed by a switch
0108      8378     COND   EQU  MTSWTL+2            * Condition (0=NORM, 1=DJMP, 2=IMMU, 2=CONF)
0109      837A     CNDCNT EQU  COND+2              * Condition counter
0110      837C     PGIFT  EQU  CNDCNT+2            * Sprite pattern shown after sparkles
0111      837E     VCPY   EQU  PGIFT+2             * VDP copy loop (22 bytes)
0112      83E0     PLYRWS EQU  >83E0
0113               
0114               *      Assembler constants
0115      0006     SCRINT EQU  6                   * Frames between the screen is scrolled
0117      0018     MAPW   EQU  24                  * Map width
0121      0080     MAPH   EQU  128                 * Map height
0122      0018     VIEWW  EQU  24                  * Viewport width
0123      0018     VIEWH  EQU  24                  * Viewport height
0124      0020     SCRNW  EQU  32                  * Screen width
0125      0018     SCRNH  EQU  24                  * Screen height
0126      0008     PANELW EQU  8                   * Panel width
0127      0018     PANELH EQU  24                  * Panel height
0128      0003     Y_DIFF EQU  3                   * Adjustment in y needed when converting
0129               *                               * between sprite and map coordinates.
0130               *                               * 1 is because screen coordinates start at >FF.
0131               *                               * Not sure about the other 2.
0132      0090     NLOGOP EQU  144
0133               
0144               
0145               * Sprites and patterns
0146      000E     NSPR   EQU  14                  * Number of sprites
0147      0038     NSPRPT EQU  56                  * Number of sprite patterns
0148      0000     ABALL  EQU  0
0149      0034     ASHADW EQU  52                  * Shadow attribute
0150      0000     PBALL0 EQU  0
0151      0008     PBALL1 EQU  8
0152      0010     PBALL2 EQU  16
0153      0018     PBALL3 EQU  24
0154      0020     PBALL4 EQU  32
0155      0028     PBALL5 EQU  40
0156      0004     NENEMY EQU  4                   * Number of enemy sprites
0157      0008     AENEMY EQU  8                   * First attribute for enemy sprites
0158      0040     PENEMY EQU  64                  * First enemy patterns
0159      0040     PDICE  EQU  64
0160      0060     PSCISS EQU  96
0161      0080     PTANK  EQU  128
0162      00A0     PKNIFE EQU  160
0163      0003     NSPARK EQU  3                   * Number of sparkle sprites
0164      0028     ASPARK EQU  40                  * First attribute for sparkle sprites
0165      0030     PSPARK EQU  48                  * First sparkle pattern
0166      00C0     PXBALL EQU  192
0167      00C4     PBONUS EQU  196
0168      00C8     PNRG   EQU  200
0169      00CC     PPRF   EQU  204
0170      00D8     PGMO   EQU  216
0171      00FC     PEMPTY EQU  252
0172               
0173               * Meta tiles
0174      0000     MTTILE EQU  0                   * Tile
0175      0001     MTWATE EQU  1                   * Water
0176      0002     MTQUES EQU  2                   * Question mark
0177      0003     MTCOIN EQU  3                   * Coin
0178      0004     MTARRO EQU  4                   * Arrow
0179      0005     MTFINI EQU  5                   * Finish
0180      0006     MTLAVA EQU  6                   * Lava
0181      0007     MTSPAC EQU  7                   * Space
0182               
0183      00F0     CHZERO EQU  240                 * Zero character code
0184      00FA     CHNRG  EQU  250                 * First energy character code
0185      007E     CHBALL EQU  126                 * Ball character code
0186      00FF     CHSPAC EQU  255                 * Space character code
0187               
0188               *      Level structure
0189      0000     LVL_MP EQU  0                   * Pointer to map
0190      0002     LVL_EN EQU  2                   * Poniter to enemy definition list
0191      0004     LVL_SW EQU  4                   * Pointer to switch list
0192      0006     LVL_CL EQU  6                   * Pointer to color change list
0193      0008     LVL_SZ EQU  8                   * Structure size
0194               
0195               *      Enemy structure
0196      0000     ENM_TP EQU  0                   * Enemy type (0: eol, 1: bounded, >1: not bounded)
0197      0002     ENM_X  EQU  2                   * X position in map coordinates
0198      0004     ENM_Y  EQU  4                   * Y position in map coordinates
0199      0006     ENM_DX EQU  6                   * X velocity
0200      0008     ENM_DY EQU  8                   * Y velocity
0201      000A     ENM_PT EQU  10                  * Pattern number
0202      000C     ENM_CL EQU  12                  * Colors 1st/2nd sprite
0203      000E     ENM_AT EQU  14                  * Pointer to sprite attributes, 0 if not allocated
0204      0010     ENM_CT EQU  16                  * Movement counter
0205      0012     ENM_SZ EQU  18                  * Structure size
0206               
0207               *      Enemy definition structure
0208      0000     END_TP EQU  0                   * Enemy type (0: eol, 1: bounded, >1: not bounded)
0209      0001     END_X  EQU  1                   * X position in meta tiles
0210      0002     END_Y  EQU  2                   * Y position in meta tiles
0211      0003     END_DX EQU  3                   * X velocity
0212      0004     END_DY EQU  4                   * Y velocity
0213      0005     END_PT EQU  5                   * Pattern number
0214      0006     END_C1 EQU  6                   * Color 1st sprite layer
0215      0007     END_C2 EQU  7                   * Color 2nd sprite layer
0216      0008     END_SZ EQU  8                   * Structure size
0217               
0218               *      Switch structure
0219      0000     SW_X   EQU  0                   * x position of switch (meta tiles)
0220      0001     SW_Y   EQU  1                   * y position of switch (meta tiles)
0221      0002     SW_MTS EQU  2                   * Pointer to zero terminated list coordinates
0222      0004     SW_SZ  EQU  4                   * of meta tile to trigger.
0223               
0224               *      Condition
0225      0000     CN_NORM EQU 0                   * Normal
0226      0001     CN_DJMP EQU 1                   * Double jump
0227      0002     CN_IMMU EQU 2                   * Immunity
0228      0003     CN_CONF EQU 3                   * Confusion
0229      0004     CN_SPED EQU 4                   * Speed
0230               
0231               ***************************************************************************
0232               *
0233               * Main program
0234               *
0235                      AORG	>A000
0236               
0237 A000 0300  24 START  LIMI 0                   * Disable interrupts
     A002 0000 
0238 A004 02E0  18        LWPI WRKSP               * Set workspace
     A006 8300 
0239 A008 020A  20        LI   R10,STACK           * Set up stack pointer
     A00A 8320 
0240               *      Init
0241 A00C 06A0  32        BL   @INIT
     A00E A096 
0242               *      Display logo
0243 A010 06A0  32 NEWGME BL   @DSPLGO
     A012 B4C0 
0244               *      Init game
0245 A014 06A0  32        BL   @INIGME
     A016 A148 
0246               *      Init level
0247 A018 06A0  32 NEWLVL BL   @INILVL
     A01A A17C 
0248               *      Main loop
0249 A01C 06A0  32 LOOP   BL   @VSYNC
     A01E A42E 
0250               *      Play music
0251 A020 06A0  32        BL   @PLAYMU
     A022 B706 
0252               *      Upload sprite attributes
0253 A024 06A0  32        BL   @FLICKR
     A026 A450 
0254               *      Scroll
0255 A028 06A0  32        BL   @SCROLL
     A02A A4B6 
0256               *      Update switched meta tiles
0257 A02C 06A0  32        BL   @UPDSMT
     A02E AE82 
0258               *      Check frame
0259 A030 06A0  32        BL   @CHKFRM
     A032 A4F2 
0260               *      Manage condition counter
0261 A034 06A0  32        BL   @MGCOND
     A036 A51A 
0262               *      Map position
0263 A038 06A0  32        BL   @MAPPOS
     A03A A544 
0264               *      Enemy collisions
0265 A03C 06A0  32        BL   @ENMCOL
     A03E A636 
0266               *      Read joystick
0267 A040 06A0  32        BL   @JOYST
     A042 A6A0 
0268               *      Move ball
0269 A044 06A0  32        BL   @MOVBAL
     A046 A790 
0270               *      Move enemies
0271 A048 06A0  32        BL   @MOVENM
     A04A A896 
0272               *      Display sparkle sprites
0273 A04C 06A0  32        BL   @SPARKL
     A04E A9E0 
0274               *      Display time
0275 A050 06A0  32        BL   @DSPTME
     A052 B30C 
0276               *      Check quit
0277 A054 06A0  32        BL   @CKQUIT
     A056 AA52 
0278               *      Next frame
0279 A058 C020  34 NXTFRM MOV  @FRAME,R0
     A05A 8338 
0280 A05C 0280  22        CI   R0,MAXFRM
     A05E 1B58 
0281 A060 1603  14        JNE  NXTFR1
0282 A062 C820  54        MOV  @ONE,@DIED
     A064 8330 
     A066 8370 
0283 A068 0580  14 NXTFR1 INC  R0
0284 A06A C800  38        MOV  R0,@FRAME
     A06C 8338 
0289               *      Check for level done
0290 A06E C020  34        MOV  @LVLCMP,R0
     A070 836C 
0291 A072 16D2  14        JNE  NEWLVL
0292               *      Check if died
0293 A074 C020  34        MOV  @DIED,R0
     A076 8370 
0294 A078 1101  14        JLT  DEAD
0295               *      Loop
0296 A07A 10D0  14        JMP  LOOP
0297               *      Dead
0298 A07C 06A0  32 DEAD   BL   @MTESND
     A07E B734 
0299 A080 0202  20        LI   R2,30
     A082 001E 
0300 A084 06A0  32        BL   @PAUSE
     A086 A41E 
0301 A088 0620  34        DEC  @LIVES
     A08A 8366 
0302 A08C 15C5  14        JGT  NEWLVL
0303 A08E 13C4  14        JEQ  NEWLVL
0304 A090 06A0  32        BL   @GMEOVR
     A092 A3FE 
0305 A094 10BD  14        JMP  NEWGME
0306               
0307               ***************************************************************************
0308               *
0309               * One time initializations
0310 A096 CE8B  34 INIT   MOV  R11,*R10+           * Push return address onto the stack
0311               *      Save random number seed
0312 A098 C820  54        MOV    @RNDSD,@RANDNO
     A09A 83C0 
     A09C 833C 
0313               *      Init constants
0314 A09E 0200  20        LI   R0,1
     A0A0 0001 
0315 A0A2 C800  38        MOV  R0,@ONE
     A0A4 8330 
0316 A0A6 0200  20        LI   R0,8
     A0A8 0008 
0317 A0AA C800  38        MOV  R0,@EIGHT
     A0AC 8332 
0318 A0AE 0200  20        LI   R0,>C000
     A0B0 C000 
0319 A0B2 C800  38        MOV  R0,@BYTEC0
     A0B4 8334 
0320 A0B6 0200  20        LI   R0,MAPW
     A0B8 0018 
0321 A0BA C800  38        MOV  R0,@M_MAPW
     A0BC 8336 
0322               *      Copy VDP copy loop to scratch pad
0323 A0BE 0200  20        LI   R0,VCPY
     A0C0 837E 
0324 A0C2 0201  20        LI   R1,VCPY8
     A0C4 B5BE 
0325 A0C6 0202  20        LI   R2,VCPY8E-VCPY8
     A0C8 0016 
0326 A0CA 06A0  32        BL   @COPY
     A0CC B6AA 
0327               *      Init graphics mode
0328 A0CE 06A0  32        BL   @GMODE
     A0D0 AC0A 
0329               *      Upload static patterns to VDP
0330 A0D2 0204  20        LI   R4,FPDATA
     A0D4 A0EE 
0331 A0D6 0205  20        LI   R5,15               * Number of segments to upload
     A0D8 000F 
0332 A0DA C034  30 INIT1  MOV  *R4+,R0
0333 A0DC C074  30        MOV  *R4+,R1
0334 A0DE C0B4  30        MOV  *R4+,R2
0335 A0E0 06A0  32        BL   @VDPCP
     A0E2 B58C 
0336 A0E4 0605  14        DEC  R5
0337 A0E6 16F9  14        JNE  INIT1
0338               *      Return
0339 A0E8 064A  14        DECT R10                 * Pop return address off the stack
0340 A0EA C2DA  26        MOV  *R10,R11
0341 A0EC 045B  20        B    *R11
0342               *      Destination, source, and length of uploaded data
0343               FPDATA
0344               *      Fixed chars 112-127
0345 A0EE 0380            DATA 112*8+PTRNTB,FPT112,16*8
     A0F0 D906 
     A0F2 0080 
0346 A0F4 0B80            DATA 112*8+PTRNTB+>800,FPM112,16*8
     A0F6 DA06 
     A0F8 0080 
0347 A0FA 1380            DATA 112*8+PTRNTB+>1000,FPB112,16*8
     A0FC DB06 
     A0FE 0080 
0348 A100 2380            DATA 112*8+COLRTB,FCL112,16*8
     A102 D806 
     A104 0080 
0349 A106 2B00            DATA FIXPAT,FPM112,16*8
     A108 DA06 
     A10A 0080 
0350 A10C 2B80            DATA FIXCOL,FCL112,16*8
     A10E D806 
     A110 0080 
0351               *      Fixed char 240-255
0352 A112 0780            DATA 240*8+PTRNTB,FPT240,16*8
     A114 D986 
     A116 0080 
0353 A118 0F80            DATA 240*8+PTRNTB+>800,FPM240,16*8
     A11A DA86 
     A11C 0080 
0354 A11E 1780            DATA 240*8+PTRNTB+>1000,FPB240,16*8
     A120 DB86 
     A122 0080 
0355 A124 2780            DATA 240*8+COLRTB,FCL240,16*8
     A126 D886 
     A128 0080 
0356               *      Panel map
0357 A12A 2F00            DATA FIXMAP,PNLMAP,8*24
     A12C DC06 
     A12E 00C0 
0358               *      Sprite patterns
0359 A130 1800            DATA SPRPTB,SPR0,NSPRPT*32
     A132 DCC6 
     A134 0700 
0360               *      Logo map
0361 A136 3300            DATA LGMAP,LMAP,256
     A138 ECC6 
     A13A 0100 
0362               *      Logo patterns
0363 A13C 3700            DATA LGPAT,LPAT0,NLOGOP*8
     A13E E846 
     A140 0480 
0364               *      Upload logo colors
0365 A142 3B80            DATA LGCOL,LCOL0,NLOGOP*8
     A144 E3C6 
     A146 0480 
0366               *// INIT
0367               
0368               ***************************************************************************
0369               *
0370               * New game initializations
0371               *
0372 A148 CE8B  34 INIGME MOV  R11,*R10+           * Push return address onto the stack
0373 A14A 04E0  34        CLR  @SCOREH
     A14C 8360 
0374 A14E 04E0  34        CLR  @SCOREL
     A150 8362 
0375 A152 0200  20        LI   R0,SLEVEL
     A154 0001 
0376 A156 C800  38        MOV  R0,@LEVEL
     A158 8368 
0377 A15A 0600  14        DEC  R0
0378 A15C 0201  20        LI   R1,LVL_SZ
     A15E 0008 
0379 A160 3801  56        MPY  R1,R0
0380 A162 0221  22        AI   R1,LEVELS
     A164 B7B4 
0381 A166 C801  38        MOV  R1,@LVLPTR
     A168 836A 
0382 A16A 04E0  34        CLR  @LVLLST
     A16C 836E 
0383 A16E 0200  20        LI   R0,NLIVES
     A170 0002 
0384 A172 C800  38        MOV  R0,@LIVES
     A174 8366 
0385               *      Return
0386 A176 064A  14        DECT R10                 * Pop return address off the stack
0387 A178 C2DA  26        MOV  *R10,R11
0388 A17A 045B  20        B    *R11
0389               *// INIGME
0390               
0391               ***************************************************************************
0392               *
0393               * New level initializations
0394               *
0395 A17C CE8B  34 INILVL MOV  R11,*R10+           * Push return address onto the stack
0396 A17E 06A0  32        BL   @MTESND
     A180 B734 
0397               *      Copy level info into place
0398 A182 C320  34        MOV  @LVLPTR,R12
     A184 836A 
0399               *      Copy enemy list
0400               *      Note: Should really use structure EQUs
0401 A186 0200  20        LI   R0,ENMLST           * Pointer to destination enemy list
     A188 D8FE 
0402 A18A C06C  34        MOV  @LVL_EN(R12),R1     * Pointer to source enemy definition list
     A18C 0002 
0403 A18E C0B1  30        MOV  *R1+,R2             * Number of entries
0404 A190 131F  14        JEQ  INILV6
0405 A192 04C3  14 INILV5 CLR  R3                  * Type
0406 A194 D831  48        MOVB *R1+,@R3LB
     A196 8307 
0407 A198 CC03  34        MOV  R3,*R0+
0408 A19A 04C3  14        CLR  R3                  * X position
0409 A19C D831  48        MOVB *R1+,@R3LB
     A19E 8307 
0410 A1A0 0A43  56        SLA  R3,4
0411 A1A2 CC03  34        MOV  R3,*R0+
0412 A1A4 04C3  14        CLR  R3                  * Y position
0413 A1A6 D831  48        MOVB *R1+,@R3LB
     A1A8 8307 
0414 A1AA 0A43  56        SLA  R3,4
0415 A1AC CC03  34        MOV  R3,*R0+
0416 A1AE D0F1  28        MOVB *R1+,R3             * X velocity
0417 A1B0 0883  56        SRA  R3,8
0418 A1B2 CC03  34        MOV  R3,*R0+
0419 A1B4 D0F1  28        MOVB *R1+,R3             * Y velocity
0420 A1B6 0883  56        SRA  R3,8
0421 A1B8 CC03  34        MOV  R3,*R0+
0422 A1BA 04C3  14        CLR  R3                  * Pattern number
0423 A1BC D831  48        MOVB *R1+,@R3LB
     A1BE 8307 
0424 A1C0 CC03  34        MOV  R3,*R0+
0425 A1C2 CC31  46        MOV *R1+,*R0+             * Colors
0426 A1C4 04F0  30        CLR  *R0+                 * Pointer to sprite attributes
0427 A1C6 C0C2  18        MOV  R2,R3
0428 A1C8 0583  14        INC R3
0429 A1CA CC03  34        MOV  R3,*R0+              * Counter
0430 A1CC 0602  14        DEC  R2
0431 A1CE 16E1  14        JNE  INILV5
0432 A1D0 04F0  30 INILV6 CLR  *R0+                 * End marker
0433               *      Copy switch list
0434 A1D2 0200  20        LI   R0,SWLIST
     A1D4 D990 
0435 A1D6 C06C  34        MOV  @LVL_SW(R12),R1
     A1D8 0004 
0436 A1DA C0B1  30        MOV  *R1+,R2
0437 A1DC 06A0  32        BL   @COPY
     A1DE B6AA 
0438               *      Unpack meta tile map
0439 A1E0 C02C  34        MOV  @LVL_MP(R12),R0
     A1E2 0000 
0440 A1E4 0201  20        LI   R1,MTMAP
     A1E6 2000 
0441 A1E8 06A0  32        BL   @UNPACK
     A1EA AC50 
0442               *      Expand meta tile map to MAP
0443 A1EC 0200  20        LI   R0,MTMAP
     A1EE 2000 
0444 A1F0 0201  20        LI   R1,MTILES
     A1F2 B892 
0445 A1F4 06A0  32        BL   @EXPMAP
     A1F6 AC70 
0446               *      Initialize the scroll tile map
0447 A1F8 06A0  32        BL   @INIST
     A1FA AC9E 
0448               *      Only if level number changed
0449 A1FC 8820  54        C    @LEVEL,@LVLLST
     A1FE 8368 
     A200 836E 
0450 A202 1310  14        JEQ  INILV3
0451               *      Pre-scroll patterns
0452 A204 0200  20        LI   R0,PATS             * Base pattern address
     A206 3800 
0453 A208 0201  20        LI   R1,PTFRM0           * Destination address
     A20A D9A2 
0454 A20C 06A0  32        BL   @PSCRL              * Pre-scroll patterns
     A20E AD12 
0455               *      Pre-scroll colors
0456 A210 0200  20        LI   R0,COLS             * Base color address
     A212 3000 
0457 A214 0201  20        LI   R1,CLFRM0           * Destination address
     A216 ECA2 
0458 A218 06A0  32        BL   @PSCRL              * Pre-scroll colors
     A21A AD12 
0459               *      Change colors
0460 A21C C02C  34        MOV  @LVL_CL(R12),R0
     A21E 0006 
0461 A220 06A0  32        BL   @CHGCLR
     A222 B786 
0462               INILV3
0463               *      Init scrolling variables
0469 A224 0200  20        LI   R0,MAPH             * Get map height in rows
     A226 0080 
0470 A228 0220  22        AI   R0,-SCRNH           * Subtract one screen
     A22A FFE8 
0471 A22C 0A30  56        SLA  R0,3                * Convert to pixels
0472 A22E 0600  14        DEC  R0                  * See INISCR
0473 A230 C800  38        MOV  R0,@SCRLY           * Start at the bottom of the map
     A232 8344 
0474 A234 04E0  34        CLR  @SCRLCT             * Initialize scroll counter
     A236 833E 
0475               *      Init other variables
0476 A238 04E0  34        CLR  @FRAME
     A23A 8338 
0477 A23C 04E0  34        CLR  @JMPFRM
     A23E 8348 
0478 A240 0200  20        LI   R0,1
     A242 0001 
0479 A244 C800  38        MOV  R0,@JMPLEN
     A246 8352 
0480 A248 04E0  34        CLR  @MOVDX
     A24A 8356 
0481 A24C 04E0  34        CLR  @MOVDXV
     A24E 8358 
0482 A250 04E0  34        CLR  @MOVDYV
     A252 835A 
0483 A254 04E0  34        CLR  @JMPZ
     A256 8350 
0484 A258 0200  20        LI   R0,2
     A25A 0002 
0485 A25C C800  38        MOV  R0,@FSPRNO          * Flicker routine sprite number
     A25E 835E 
0486 A260 04E0  34        CLR  @LVLCMP
     A262 836C 
0487 A264 04E0  34        CLR  @DIED
     A266 8370 
0488 A268 04E0  34        CLR  @MTSWPT
     A26A 8374 
0489 A26C 04E0  34        CLR  @COND
     A26E 8378 
0490 A270 04E0  34        CLR  @CNDCNT
     A272 837A 
0491 A274 04E0  34        CLR  @PGIFT
     A276 837C 
0492               *      Wait for fire
0493 A278 C020  34        MOV  @LVLLST,R0
     A27A 836E 
0494 A27C 1606  14        JNE  INILV4
0495               *      Display "Press Fire"
0496 A27E 06A0  32        BL   @PRFIRE
     A280 A30E 
0497               *      Screen off
0498 A282 0200  20        LI   R0,>01A2
     A284 01A2 
0499 A286 06A0  32        BL   @VWTR
     A288 B660 
0500               *      Display initial screen
0501 A28A 06A0  32 INILV4 BL   @INISCR
     A28C AD6E 
0502               *      Right panel
0503 A28E C020  34        MOV  @LVLLST,R0
     A290 836E 
0504 A292 1602  14        JNE  INILV2
0505 A294 06A0  32        BL   @DSPPNL
     A296 B44E 
0506               *      Display lives
0507 A298 06A0  32 INILV2 BL   @DSPLVS
     A29A B2B8 
0508               *      Display level
0509 A29C 06A0  32        BL   @DSPLVL
     A29E B3D8 
0510               *      Restore energy
0511 A2A0 06A0  32        BL   @RSTNRG
     A2A2 B28A 
0512               *      Restore time
0513 A2A4 06A0  32        BL   @RSTTME
     A2A6 B354 
0514               *      Restore ball color
0515 A2A8 04C1  14        CLR  R1
0516 A2AA 06A0  32        BL   @SETCLR
     A2AC B238 
0517               *      Restore ball position
0518 A2AE 0200  20        LI   R0,SPRATT+ABALL
     A2B0 B834 
0519 A2B2 0201  20        LI   R1,>8060
     A2B4 8060 
0520 A2B6 CC01  34        MOV  R1,*R0+
0521 A2B8 05C0  14        INCT R0
0522 A2BA C401  30        MOV  R1,*R0
0523 A2BC 0200  20        LI   R0,SPRATT+ASHADW
     A2BE B868 
0524 A2C0 C401  30        MOV  R1,*R0
0525               *      Place other sprites out of screen
0526 A2C2 0200  20        LI   R0,SPRATT+AENEMY
     A2C4 B83C 
0527 A2C6 0201  20        LI   R1,>C000
     A2C8 C000 
0528 A2CA 0202  20        LI   R2,NSPR-3
     A2CC 000B 
0529 A2CE CC01  34 INILV1 MOV  R1,*R0+
0530 A2D0 05C0  14        INCT R0
0531 A2D2 0602  14        DEC  R2
0532 A2D4 16FC  14        JNE  INILV1
0533               *      Sprites attribute end marker
0534 A2D6 0200  20        LI   R0,NSPR*4+SPRATB
     A2D8 1FB8 
0535 A2DA 0201  20        LI   R1,>D000
     A2DC D000 
0536 A2DE 06A0  32        BL   @VSBW
     A2E0 B5F8 
0537               *      Init music
0538 A2E2 06A0  32        BL   @INITMU
     A2E4 B720 
0539               *      Set name table
0540 A2E6 0200  20        LI   R0,>020D
     A2E8 020D 
0541 A2EA 06A0  32        BL   @VWTR
     A2EC B660 
0542               *      Screen on
0543 A2EE 0200  20        LI   R0,>01E2
     A2F0 01E2 
0544 A2F2 06A0  32        BL   @VWTR
     A2F4 B660 
0545               *      Wait a little
0546 A2F6 06A0  32        BL   @FLICKR
     A2F8 A450 
0547 A2FA 0202  20        LI   R2,60
     A2FC 003C 
0548 A2FE 06A0  32        BL   @PAUSE
     A300 A41E 
0549               *      Save last level
0550 A302 C820  54        MOV  @LEVEL,@LVLLST
     A304 8368 
     A306 836E 
0551               *      Return
0552 A308 064A  14        DECT R10                 * Pop return address off the stack
0553 A30A C2DA  26        MOV  *R10,R11
0554 A30C 045B  20        B    *R11
0555               *// INILVL
0556               
0557               ***************************************************************************
0558               *
0559               * Display "Press fire"
0560               *
0561 A30E CE8B  34 PRFIRE MOV  R11,*R10+           * Push return address onto the stack
0562               *      Upload attributes
0563 A310 0200  20        LI   R0,SPRATB
     A312 1F80 
0564 A314 0201  20        LI   R1,PRFATT
     A316 B86C 
0565 A318 0202  20        LI   R2,13
     A31A 000D 
0566 A31C 06A0  32        BL   @VMBW
     A31E B624 
0567               *      Animate
0568 A320 D0E0  34        MOVB @PRFATT,R3          * y position
     A322 B86C 
0569 A324 0204  20        LI   R4,PRFDAT           * Pointer to animation data
     A326 A370 
0570 A328 04C2  14 PRFIR1 CLR  R2
0571 A32A D834  48        MOVB *R4+,@R2LB          * Get repeat count
     A32C 8305 
0572 A32E 131A  14        JEQ  PRFIR3
0573 A330 04C5  14        CLR  R5
0574 A332 D174  28        MOVB *R4+,R5             * Get y increment
0575 A334 B0C5  18 PRFIR2 AB   R5,R3
0576 A336 C043  18        MOV  R3,R1
0577 A338 0200  20        LI   R0,SPRATB
     A33A 1F80 
0578 A33C 06A0  32        BL   @VSBW
     A33E B5F8 
0579 A340 0200  20        LI   R0,SPRATB+4
     A342 1F84 
0580 A344 06A0  32        BL   @VSBW
     A346 B5F8 
0581 A348 0200  20        LI   R0,SPRATB+8
     A34A 1F88 
0582 A34C 06A0  32        BL   @VSBW
     A34E B5F8 
0583 A350 06A0  32        BL   @VSYNC
     A352 A42E 
0584 A354 0200  20        LI   R0,>0606            * Fire button
     A356 0606 
0585 A358 06A0  32        BL   @CHKKEY
     A35A B6DC 
0586 A35C 1606  14        JNE  PRFIR4
0587 A35E 0602  14        DEC  R2
0588 A360 16E9  14        JNE  PRFIR2
0589 A362 10E2  14        JMP  PRFIR1
0590 A364 04C2  14 PRFIR3 CLR  R2
0591 A366 06A0  32        BL   @WTFIRE
     A368 B6B2 
0592               *      Return
0593 A36A 064A  14 PRFIR4 DECT R10                 * Pop return address off the stack
0594 A36C C2DA  26        MOV  *R10,R11
0595 A36E 045B  20        B    *R11
0596 A370 3C00     PRFDAT BYTE 60,0,16,1,8,2,4,4
     A372 1001 
     A374 0802 
     A376 0404 
0597 A378 02FC            BYTE 2,-4,2,-2,2,-1,4,0
     A37A 02FE 
     A37C 02FF 
     A37E 0400 
0598 A380 0201            BYTE 2,1,2,2,2,4
     A382 0202 
     A384 0204 
0599 A386 02FE            BYTE 2,-2,2,-1,4,0,2,1,2,2
     A388 02FF 
     A38A 0400 
     A38C 0201 
     A38E 0202 
0600 A390 0000            BYTE 0,0
0601               *// PRFIRE
0602               
0603               ***************************************************************************
0604               *
0605               * Level complete
0606               *
0607 A392 CE8B  34 LVLOVR MOV  R11,*R10+           * Push return address onto the stack
0608 A394 0720  34        SETO @LVLCMP
     A396 836C 
0609 A398 05A0  34        INC  @LEVEL
     A39A 8368 
0610 A39C C020  34        MOV  @LVLPTR,R0
     A39E 836A 
0611 A3A0 0220  22        AI   R0,LVL_SZ
     A3A2 0008 
0612 A3A4 C050  26        MOV  *R0,R1
0613 A3A6 1602  14        JNE  LVLOV1
0614 A3A8 0200  20        LI   R0,LEVELS
     A3AA B7B4 
0615 A3AC C800  38 LVLOV1 MOV  R0,@LVLPTR
     A3AE 836A 
0616 A3B0 0200  20        LI   R0,FINISH
     A3B2 2B94 
0617 A3B4 06A0  32        BL   @SPEAK              * Say something
     A3B6 B75A 
0618 A3B8 C020  34 LVLOV2 MOV  @FRAME,R0
     A3BA 8338 
0619 A3BC 0280  22        CI   R0,MAXFRM
     A3BE 1B58 
0620 A3C0 1419  14        JHE  LVLOV3
0621 A3C2 06A0  32        BL   @VSYNC
     A3C4 A42E 
0622 A3C6 06A0  32        BL   @DSPTME
     A3C8 B30C 
0623 A3CA 0200  20        LI   R0,11
     A3CC 000B 
0624 A3CE 06A0  32        BL   @ADDSCO
     A3D0 B37C 
0625 A3D2 C020  34        MOV  @FRAME,R0
     A3D4 8338 
0626 A3D6 0220  22        AI   R0,16
     A3D8 0010 
0627 A3DA C800  38        MOV  R0,@FRAME
     A3DC 8338 
0628 A3DE 0240  22        ANDI R0,32
     A3E0 0020 
0629 A3E2 1603  14        JNE  LVLOV4
0630 A3E4 06A0  32        BL   @MTESND
     A3E6 B734 
0631 A3E8 10E7  14        JMP  LVLOV2
0632 A3EA 0200  20 LVLOV4 LI   R0,TCKSND
     A3EC A3FA 
0633 A3EE 06A0  32        BL   @PLYSND
     A3F0 B74A 
0634 A3F2 10E2  14        JMP  LVLOV2
0635               *      Return
0636 A3F4 064A  14 LVLOV3 DECT R10                 * Pop return address off the stack
0637 A3F6 C2DA  26        MOV  *R10,R11
0638 A3F8 045B  20        B    *R11
0639 A3FA 038F     TCKSND BYTE >03,>8F,>07,>90
     A3FC 0790 
0640               *// LVLOVR
0641               
0642               ***************************************************************************
0643               *
0644               * Game over
0645               *
0646 A3FE CE8B  34 GMEOVR MOV  R11,*R10+           * Push return address onto the stack
0647 A400 0200  20        LI   R0,SPRATB
     A402 1F80 
0648 A404 0201  20        LI   R1,GMOATT
     A406 B87A 
0649 A408 0202  20        LI   R2,17
     A40A 0011 
0650 A40C 06A0  32        BL   @VMBW
     A40E B624 
0651 A410 0202  20        LI   R2,18000            * Wait up to 5 minutes
     A412 4650 
0652 A414 06A0  32        BL   @WTFIRE
     A416 B6B2 
0653               *      Return
0654 A418 064A  14        DECT R10                 * Pop return address off the stack
0655 A41A C2DA  26        MOV  *R10,R11
0656 A41C 045B  20        B    *R11
0657               *// GMEOVR
0658               
0659               ***************************************************************************
0660               *
0661               * Pause
0662               *
0663               * R2: Number of frames to wait
0664               *
0665 A41E CE8B  34 PAUSE  MOV  R11,*R10+           * Push return address onto the stack
0666 A420 06A0  32 PAUSE1 BL   @VSYNC
     A422 A42E 
0667 A424 0602  14        DEC  R2
0668 A426 16FC  14        JNE  PAUSE1
0669               *      Return
0670 A428 064A  14        DECT R10                 * Pop return address off the stack
0671 A42A C2DA  26        MOV  *R10,R11
0672 A42C 045B  20        B    *R11
0673               *// PAUSE
0674               
0675               ***************************************************************************
0676               *
0677               * Wait for vertical retrace (CRU)
0678               *
0679 A42E 04E0  34 VSYNC  CLR  @SPR5TH
     A430 833A 
0680 A432 04CC  14        CLR  R12
0681 A434 1F02  20 VSYNC1 TB   2                   * Test CRU bit for VDP interrupt
0682 A436 13FE  14        JEQ  VSYNC1
0683 A438 D020  34        MOVB @VDPSTA,R0
     A43A 8802 
0684 A43C C040  18        MOV	R0,R1
0685 A43E 0240  22        ANDI	R0,>4000
     A440 4000 
0686 A442 1305  14        JEQ	VSYNC2
0687 A444 0241  22        ANDI	R1,>1F00
     A446 1F00 
0688 A448 06C1  14        SWPB	R1
0689 A44A C801  38        MOV	R1,@SPR5TH
     A44C 833A 
0690 A44E 045B  20 VSYNC2 B    *R11
0691               *// VSYNC
0692               
0693               ***************************************************************************
0694               *
0695               * Upload sprite attributes (flicker routine)
0696               *
0697 A450 CE8B  34 FLICKR MOV  R11,*R10+           * Push return address onto the stack
0702               *      Always copy ball sprites first (not including shadow)
0703 A452 0200  20        LI   R0,SPRATB           * Destination
     A454 1F80 
0704 A456 0201  20        LI   R1,SPRATT
     A458 B834 
0705 A45A 0202  20        LI   R2,8
     A45C 0008 
0706 A45E 06A0  32        BL   @VDPCP
     A460 B58C 
0707               *      Then copy remaining sprites starting from a changing position
0708 A462 C120  34        MOV  @SPR5TH,R4          * Get number of 5th sprite on a line
     A464 833A 
0709 A466 1603  14        JNE  FLICK1
0710               *      No 5th sprite - just start at the beginning
0711 A468 0204  20 FLICK0 LI   R4,2
     A46A 0002 
0712 A46C 100B  14        JMP  FLICK2
0713               *      5th sprite
0714 A46E 0284  22 FLICK1 CI   R4,NSPR-1           * Avoid bug in Classic99 where >1F is returned as 5th sprite
     A470 000D 
0715 A472 15FA  14        JGT  FLICK0
0716 A474 A120  34        A    @FSPRNO,R4          * Add last start position
     A476 835E 
0717 A478 0644  14        DECT R4                  * Because we start at 2
0718 A47A 0284  22        CI   R4,NSPR             * Check for overflow
     A47C 000E 
0719 A47E 1102  14        JLT  FLICK2
0720 A480 0224  22        AI   R4,-NSPR+2          * Wrap around
     A482 FFF4 
0721 A484 C044  18 FLICK2 MOV  R4,R1               * Place in source address
0722 A486 0A21  56        SLA  R1,2                * Multiply by four
0723 A488 0221  22        AI   R1,SPRATT           * Add base address
     A48A B834 
0724 A48C 0202  20        LI   R2,NSPR             * Total number of sprites
     A48E 000E 
0725 A490 6084  18        S    R4,R2               * Subtract start sprite
0726 A492 0A22  56        SLA  R2,2                * Multiply by four
0727 A494 06A0  32        BL   @VDPCP0             * Copy
     A496 B588 
0728 A498 0284  22        CI   R4,2                * Test if we started at beginning
     A49A 0002 
0729 A49C 1307  14        JEQ  FLICK3              * No more to do
0730 A49E 0201  20        LI   R1,SPRATT+8         * Source address
     A4A0 B83C 
0731 A4A2 C084  18        MOV  R4,R2               * Start sprite
0732 A4A4 0642  14        DECT R2                  * Minus 2 (because we start at 2)
0733 A4A6 0A22  56        SLA  R2,2                * Multiply by four
0734 A4A8 06A0  32        BL   @VDPCP0             * Copy
     A4AA B588 
0735 A4AC C804  38 FLICK3 MOV  R4,@FSPRNO          * Save start position
     A4AE 835E 
0736               *      Return
0737 A4B0 064A  14        DECT R10                 * Pop return address off the stack
0738 A4B2 C2DA  26        MOV  *R10,R11
0739 A4B4 045B  20        B    *R11
0740               *// FLICKR
0741               
0742               ***************************************************************************
0743               *
0744               * Scroll the screen
0745               *
0746               * Called every frame, but actually only scrolls every 6th frame.
0747               * In other frames it does part of the work to prepare the buffers.
0748               *
0749               * Frame 5: Set name table, change scroll offset, update patterns #5, updated name table #5
0750               * Frame 4: Update patterns #4, updated name table #4
0751               * Frame 3: Update patterns #3, updated name table #3
0752               * Frame 2: Update patterns #2, updated name table #2
0753               * Frame 1: Update patterns #1, updated name table #1
0754               * Frame 0: Update patterns #0, updated name table #0
0755               *
0756 A4B6 CE8B  34 SCROLL MOV  R11,*R10+           * Push return address onto the stack
0761               *      Check scroll counter
0762 A4B8 C020  34        MOV  @SCRLCT,R0
     A4BA 833E 
0763 A4BC 1611  14        JNE  SCROL2
0764               *      Every 6th frame {
0765               *      Reset scroll counter
0766 A4BE 0200  20        LI   R0,SCRINT           * Set to 6
     A4C0 0006 
0767 A4C2 C800  38        MOV  R0,@SCRLCT
     A4C4 833E 
0768               *      Set name table
0769 A4C6 06A0  32        BL   @SETNT              * This is what actually scrolls the screen
     A4C8 AA72 
0770               *      Change scroll offset
0771 A4CA C020  34        MOV  @SCRLY,R0
     A4CC 8344 
0772 A4CE 130E  14        JEQ  SCROL3              * Check for top of map
0773 A4D0 C800  38        MOV  R0,@SCRLYO          * Save scroll offset, for use in UPDPT
     A4D2 8346 
0774 A4D4 0600  14        DEC  R0
0775 A4D6 C800  38        MOV  R0,@SCRLY
     A4D8 8344 
0776               *      Adjust ball position
0777 A4DA C820  54        MOV  @ONE,@MOVDYV
     A4DC 8330 
     A4DE 835A 
0778               *      Horizontal scrolling
0785               *      }
0786               *      Every frame {
0787               *      Decrement counter (5 to 0)
0788 A4E0 0620  34 SCROL2 DEC  @SCRLCT
     A4E2 833E 
0789               *      Update patterns
0790 A4E4 06A0  32        BL   @UPDPT
     A4E6 AAAA 
0791               *      Update name table buffer
0792 A4E8 06A0  32        BL   @UPDNT
     A4EA AB88 
0793               *      }
0794               *      Return
0795 A4EC 064A  14 SCROL3 DECT R10                 * Pop return address off the stack
0796 A4EE C2DA  26        MOV  *R10,R11
0797 A4F0 045B  20        B    *R11
0798               *// SCROLL
0799               
0800               ***************************************************************************
0801               *
0802               * Horizontal scrolling
0803               *
0838               *// HSCROL
0839               
0840               ***************************************************************************
0841               *
0842               * Check if we are in the frame just before a jump begins
0843               *
0844 A4F2 C020  34 CHKFRM MOV  @JMPFRM,R0
     A4F4 8348 
0845 A4F6 C060  34        MOV  @COND,R1
     A4F8 8378 
0846 A4FA 0281  22        CI   R1,CN_SPED          * Check for speed condition
     A4FC 0004 
0847 A4FE 1601  14        JNE  CHKFR1
0848 A500 0A10  56        SLA  R0,1
0849 A502 C060  34 CHKFR1 MOV  @JMPLEN,R1
     A504 8352 
0850 A506 0A11  56        SLA  R1,1
0851 A508 4021  34        SZC  @JMPMSK(R1),R0
     A50A A512 
0852 A50C C800  38        MOV  R0,@JMP1ST          * Save as a flag
     A50E 834A 
0853 A510 045B  20        B    *R11
0854 A512 0000     JMPMSK DATA >0000,>FFE0,>FFC0,>FF80
     A514 FFE0 
     A516 FFC0 
     A518 FF80 
0855               *// CHKFRM
0856               
0857               ***************************************************************************
0858               *
0859               * Manage condition counter
0860               *
0861 A51A CE8B  34 MGCOND MOV  R11,*R10+           * Push return address onto the stack
0862 A51C C020  34        MOV  @CNDCNT,R0
     A51E 837A 
0863 A520 130E  14        JEQ  MGCON2
0864 A522 0600  14        DEC  R0
0865 A524 160A  14        JNE  MGCON1
0866 A526 C060  34        MOV  @JMP1ST,R1          * Only end condition in first frame
     A528 834A 
0867 A52A 1606  14        JNE  MGCON3
0868 A52C 04E0  34        CLR  @COND
     A52E 8378 
0869 A530 04C1  14        CLR  R1                  * Normal color
0870 A532 06A0  32        BL   @SETCLR
     A534 B238 
0871 A536 1001  14        JMP  MGCON1
0872 A538 0580  14 MGCON3 INC  R0                  * Set counter back to one
0873 A53A C800  38 MGCON1 MOV  R0,@CNDCNT
     A53C 837A 
0874               *      Return
0875 A53E 064A  14 MGCON2 DECT R10                 * Pop return address off the stack
0876 A540 C2DA  26        MOV  *R10,R11
0877 A542 045B  20        B    *R11
0878               *// MGCOND
0879               
0880               ***************************************************************************
0881               *
0882               * Find position on map
0883               *
0884 A544 CE8B  34 MAPPOS MOV  R11,*R10+           * Push return address onto the stack
0889               *      Skip if dead
0890 A546 C020  34        MOV  @DIED,R0            * Check died flag
     A548 8370 
0891 A54A 166A  14        JNE  MAPPO1
0892               *      Check if we are in the frame just before a jump begins
0893 A54C C020  34        MOV  @JMP1ST,R0
     A54E 834A 
0894 A550 1667  14        JNE  MAPPO1
0895               *      Clear automatic jump flag
0896 A552 04E0  34        CLR  @AUTJMP
     A554 8354 
0897               *      Find position
0898 A556 04C0  14        CLR  R0
0899 A558 D820  54        MOVB @SPRATT+1,@R0LB     * Get x position of ball
     A55A B835 
     A55C 8301 
0900 A55E 0220  22        AI   R0,8
     A560 0008 
0901 A562 04C1  14        CLR  R1
0902 A564 D820  54        MOVB @SPRATT,@R1LB       * Get y position of ball
     A566 B834 
     A568 8303 
0903 A56A 0221  22        AI   R1,8
     A56C 0008 
0904 A56E 06A0  32        BL   @GETMT              * Get meta tile at position
     A570 AED4 
0905               *                               * Tile number in R0, map offset in R1
0906 A572 0A10  56        SLA  R0,1                * Convert meta tile number to word offset
0907 A574 0220  22        AI   R0,MAPTBL           * Add jump table base
     A576 A626 
0908 A578 C010  26        MOV  *R0,R0              * Get jump address
0909 A57A 0450  20        B    *R0
0910               *      Tile
0911 A57C 1051  14 MPTILE JMP  MAPPO1
0912               *      Water
0913 A57E 0201  20 MPWATE LI   R1,8
     A580 0008 
0914 A582 C020  34        MOV  @COND,R0
     A584 8378 
0915 A586 0280  22        CI   R0,CN_IMMU          * Check for immunity
     A588 0002 
0916 A58A 1601  14        JNE  MAPPO3
0917 A58C 0911  56        SRL  R1,1                * Half damage when immune
0918 A58E 06A0  32 MAPPO3 BL   @DECNRG
     A590 B252 
0919 A592 1046  14        JMP  MAPPO1
0920               *      Question mark
0921 A594 06A0  32 MPQUES BL   @QUESTM
     A596 B116 
0922 A598 1043  14        JMP  MAPPO1
0923               *      Coin
0924 A59A 0200  20 MPCOIN LI   R0,MTTILE           * Change to tile
     A59C 0000 
0925 A59E 06A0  32        BL   @SETMT
     A5A0 AF20 
0926 A5A2 06A0  32        BL   @ISPARK             * Init sparkle
     A5A4 B0D8 
0927 A5A6 0200  20        LI   R0,125
     A5A8 007D 
0928 A5AA 06A0  32        BL   @ADDSCO             * Add score
     A5AC B37C 
0929               *       LI   R1,FXCOIN
0930               *       CLR  R2
0931               *       BL   @playsfx
0932 A5AE 1038  14        JMP  MAPPO1
0933               *      Long jump arrow
0934 A5B0 0200  20 MPARRO LI   R0,3
     A5B2 0003 
0935 A5B4 C800  38        MOV  R0,@JMPLEN          * Jump length 3
     A5B6 8352 
0936 A5B8 04E0  34        CLR  @JMPFRM
     A5BA 8348 
0937 A5BC 04E0  34        CLR  @JMPDX              * Vertical
     A5BE 834C 
0938 A5C0 0720  34        SETO @JMPDY
     A5C2 834E 
0939 A5C4 0720  34        SETO @AUTJMP             * Set flag
     A5C6 8354 
0940               *       LI   R1,FXJUMP
0941               *       CLR  R2
0942               *       BL   @playsfx
0943 A5C8 102B  14        JMP  MAPPO1
0944               *      Finish - next level
0945 A5CA 06A0  32 MPFINI BL   @LVLOVR
     A5CC A392 
0946 A5CE 1028  14        JMP  MAPPO1
0947               *      Lava
0948 A5D0 0201  20 MPLAVA LI   R1,8
     A5D2 0008 
0949 A5D4 C020  34        MOV  @COND,R0
     A5D6 8378 
0950 A5D8 0280  22        CI   R0,CN_IMMU          * Check for immunity
     A5DA 0002 
0951 A5DC 1601  14        JNE  MAPPO4
0952 A5DE 0911  56        SRL  R1,1                * Half damage when immune
0953 A5E0 06A0  32 MAPPO4 BL   @DECNRG
     A5E2 B252 
0954 A5E4 C020  34        MOV  @JMPDX,R0
     A5E6 834C 
0955 A5E8 1604  14        JNE  MAPPO5
0956 A5EA C020  34        MOV  @JMPDY,R0
     A5EC 834E 
0957 A5EE 1601  14        JNE  MAPPO5
0958 A5F0 1009  14        JMP  MAPPO6
0959 A5F2 0520  36 MAPPO5 NEG  @JMPDX
     A5F4 834C 
0960 A5F6 0520  36        NEG  @JMPDY
     A5F8 834E 
0961 A5FA C820  54        MOV  @ONE,@AUTJMP
     A5FC 8330 
     A5FE 8354 
0962 A600 04E0  34        CLR  @JMPFRM
     A602 8348 
0963               MAPPO6
0964 A604 0200  20        LI   R0,NO
     A606 3C4F 
0965 A608 06A0  32        BL   @SPEAK              * Say something
     A60A B75A 
0966 A60C 1009  14        JMP  MAPPO1
0967               *      Space
0968 A60E C020  34 MPSPAC MOV  @DIED,R0
     A610 8370 
0969 A612 1606  14        JNE  MAPPO1
0970 A614 C820  54        MOV  @ONE,@DIED
     A616 8330 
     A618 8370 
0971 A61A 04E0  34        CLR  @JMPFRM
     A61C 8348 
0972               *      LI   R0,NO
0973               *      BL   @SPEAK              * Say something
0974 A61E 1000  14        JMP  MAPPO1
0975               *      Return
0976 A620 064A  14 MAPPO1 DECT R10                 * Pop return address off the stack
0977 A622 C2DA  26        MOV  *R10,R11
0978 A624 045B  20        B    *R11
0979 A626 A57C     MAPTBL DATA MPTILE,MPWATE,MPQUES,MPCOIN,MPARRO,MPFINI,MPLAVA,MPSPAC
     A628 A57E 
     A62A A594 
     A62C A59A 
     A62E A5B0 
     A630 A5CA 
     A632 A5D0 
     A634 A60E 
0980               *// MAPPOS
0981               
0982               ***************************************************************************
0983               *
0984               * Enemy collisions
0985               *
0986 A636 CE8B  34 ENMCOL MOV  R11,*R10+           * Push return address onto the stack
0991 A638 C020  34        MOV  @COND,R0            * Check for immunity condition
     A63A 8378 
0992 A63C 0280  22        CI   R0,CN_IMMU
     A63E 0002 
0993 A640 132C  14        JEQ  ENMCO9
0994 A642 04C4  14        CLR  R4
0995 A644 D820  54        MOVB @SPRATT+1,@R4LB     * Get ball x
     A646 B835 
     A648 8309 
0996 A64A 04C5  14        CLR  R5
0997 A64C D820  54        MOVB @SPRATT,@R5LB       * Get ball y
     A64E B834 
     A650 830B 
0998 A652 04C6  14        CLR  R6
0999 A654 04C7  14        CLR  R7
1000 A656 0203  20        LI   R3,ENMLST           * Pointer to enemy list
     A658 D8FE 
1001 A65A C013  26 ENMCO1 MOV  *R3,R0              * Get first word of enemy structure
1002 A65C 131E  14        JEQ  ENMCO9              * Zero terminates list
1003 A65E C023  34        MOV  @ENM_AT(R3),R0      * Get attributes address
     A660 000E 
1004 A662 1318  14        JEQ  ENMCO8              * Skip if not allocated
1005 A664 D830  48        MOVB *R0+,@R7LB          * Get enemy y
     A666 830F 
1006 A668 D810  46        MOVB *R0,@R6LB           * Get enemy x
     A66A 830D 
1007 A66C 6184  18        S    R4,R6               * Enemy x - ball x
1008 A66E 0746  18        ABS  R6
1009 A670 0286  22        CI   R6,12               * Compare to sprite width
     A672 000C 
1010 A674 150F  14        JGT  ENMCO8
1011 A676 61C5  18        S    R5,R7               * Enemy y - ball y
1012 A678 0747  18        ABS  R7
1013 A67A 0287  22        CI   R7,12               * Compare to sprite width
     A67C 000C 
1014 A67E 150A  14        JGT  ENMCO8
1015               *      Collision
1016 A680 C020  34        MOV  @JMPZ,R0            * Check jump height
     A682 8350 
1017 A684 0280  22        CI   R0,5
     A686 0005 
1018 A688 1505  14        JGT  ENMCO8              * Skip collision if at top of jump
1019 A68A 0201  20        LI   R1,1
     A68C 0001 
1020 A68E 06A0  32        BL   @DECNRG             * Zap energy
     A690 B252 
1021 A692 1003  14        JMP  ENMCO9              * No more enemies checked
1022 A694 0223  22 ENMCO8 AI   R3,ENM_SZ
     A696 0012 
1023 A698 10E0  14        JMP  ENMCO1
1024               *      Return
1025 A69A 064A  14 ENMCO9 DECT R10                 * Pop return address off the stack
1026 A69C C2DA  26        MOV  *R10,R11
1027 A69E 045B  20        B    *R11
1028               *// ENMCOL
1029               
1030               ***************************************************************************
1031               *
1032               * Read joystick
1033               *
1034 A6A0 CE8B  34 JOYST  MOV  R11,*R10+           * Push return address onto the stack
1039               *      No control if dead
1040 A6A2 C020  34        MOV  @DIED,R0            * Check died flag
     A6A4 8370 
1041 A6A6 1671  14        JNE  JOYSTB
1042               *      Check if jump length/direction has already been set by landing in lava
1043 A6A8 C020  34        MOV  @AUTJMP,R0
     A6AA 8354 
1044 A6AC 156E  14        JGT  JOYSTB              * No control
1045               *      Read joystick using CRU
1046 A6AE 020C  20        LI   R12,>0024           * CRU address of the column decoder
     A6B0 0024 
1047 A6B2 0200  20        LI   R0,>0600            * Column 6, i.e joystick #1
     A6B4 0600 
1048 A6B6 30C0  56        LDCR R0,3                * Select it
1049 A6B8 020C  20        LI   R12,>0006           * Base CRU address for joystick 1
     A6BA 0006 
1050               *      Get condition
1051 A6BC C060  34        MOV  @COND,R1
     A6BE 8378 
1052               *      Check if jump length/direction has already been set by landing on an arrow
1053 A6C0 C020  34        MOV  @AUTJMP,R0
     A6C2 8354 
1054 A6C4 162F  14        JNE  JOYST5              * Limited control
1055               *      Allow a change in jump length/direction in the frame just before a jump begins
1056 A6C6 C020  34        MOV  @JMP1ST,R0
     A6C8 834A 
1057 A6CA 1305  14        JEQ  JOYSTA              * Full control
1058               *      For jump length 1 we always allow a change in direction
1059 A6CC 8820  54        C    @ONE,@JMPLEN
     A6CE 8330 
     A6D0 8352 
1060 A6D2 130F  14        JEQ  JOYST0              * Direction control
1061 A6D4 1027  14        JMP  JOYST5              * Limited control
1062               *      Init jump type variables
1063 A6D6 C820  54 JOYSTA MOV  @ONE,@JMPLEN
     A6D8 8330 
     A6DA 8352 
1064 A6DC 0281  22        CI   R1,CN_DJMP          * Check condition
     A6DE 0001 
1065 A6E0 1602  14        JNE  JOYSTC
1066 A6E2 05A0  34        INC  @JMPLEN             * Double jump condition
     A6E4 8352 
1067 A6E6 04E0  34 JOYSTC CLR  @JMPFRM             * Clear the jump frame - important if we go from long to short jump
     A6E8 8348 
1068               *      Fire button
1069 A6EA 1F00  20        TB   0
1070 A6EC 1302  14        JEQ  JOYST0
1071 A6EE 05A0  34        INC  @JMPLEN
     A6F0 8352 
1072               *      Init direction variables
1073 A6F2 04E0  34 JOYST0 CLR  @JMPDY
     A6F4 834E 
1074 A6F6 04E0  34        CLR  @JMPDX
     A6F8 834C 
1075               *      Left
1076 A6FA 1F01  20        TB   1
1077 A6FC 1303  14        JEQ  JOYST1
1078 A6FE 0720  34        SETO @JMPDX              * DX=-1
     A700 834C 
1079 A702 1005  14        JMP  JOYST2
1080               *      Right
1081 A704 1F02  20 JOYST1 TB   2
1082 A706 1303  14        JEQ  JOYST2
1083 A708 C820  54        MOV  @ONE,@JMPDX         * DX=1
     A70A 8330 
     A70C 834C 
1084               *      Down
1085 A70E 1F03  20 JOYST2 TB   3
1086 A710 1304  14        JEQ  JOYST3
1087 A712 C820  54        MOV  @ONE,@JMPDY         * DY=1
     A714 8330 
     A716 834E 
1088 A718 1031  14        JMP  JOYST9
1089               *      Up
1090 A71A 1F04  20 JOYST3 TB   4
1091 A71C 132F  14        JEQ  JOYST9
1092 A71E 0720  34        SETO @JMPDY              * DY=-1
     A720 834E 
1093 A722 102C  14        JMP  JOYST9
1094               *      If a jump is already ongoing we allow stopping in mid air
1095               *      Left
1096 A724 1F01  20 JOYST5 TB   1
1097 A726 1309  14        JEQ  JOYST6
1098 A728 0281  22        CI   R1,CN_CONF          * Check condition
     A72A 0003 
1099 A72C 130B  14        JEQ  JOYSTE              * If confused do as if moving right
1100 A72E C020  34 JOYSTD MOV  @JMPDX,R0
     A730 834C 
1101 A732 110E  14        JLT  JOYST7
1102 A734 04E0  34        CLR  @JMPDX              * DX=0
     A736 834C 
1103 A738 100B  14        JMP  JOYST7
1104               *      Right
1105 A73A 1F02  20 JOYST6 TB   2
1106 A73C 1309  14        JEQ  JOYST7
1107 A73E 0281  22        CI   R1,CN_CONF          * Check condition
     A740 0003 
1108 A742 13F5  14        JEQ  JOYSTD              * If confused do as if moving left
1109 A744 C020  34 JOYSTE MOV  @JMPDX,R0
     A746 834C 
1110 A748 1503  14        JGT  JOYST7
1111 A74A 04E0  34        CLR  @JMPDX              * DX=0
     A74C 834C 
1112 A74E 1000  14        JMP  JOYST7
1113               *      Down
1114 A750 1F03  20 JOYST7 TB   3
1115 A752 1309  14        JEQ  JOYST8
1116 A754 0281  22        CI   R1,CN_CONF          * Check condition
     A756 0003 
1117 A758 130B  14        JEQ  JOYSTG              * If confused do as if moving up
1118 A75A C020  34 JOYSTF MOV  @JMPDY,R0
     A75C 834E 
1119 A75E 1515  14        JGT  JOYSTB
1120 A760 04E0  34        CLR  @JMPDY              * DY=0
     A762 834E 
1121 A764 1012  14        JMP  JOYSTB
1122               *      Up
1123 A766 1F04  20 JOYST8 TB   4
1124 A768 1310  14        JEQ  JOYSTB
1125 A76A 0281  22        CI   R1,CN_CONF          * Check condition
     A76C 0003 
1126 A76E 13F5  14        JEQ  JOYSTF              * If confused do as if moving down
1127 A770 C020  34 JOYSTG MOV  @JMPDY,R0
     A772 834E 
1128 A774 110A  14        JLT  JOYSTB
1129 A776 04E0  34        CLR  @JMPDY              * DY=0
     A778 834E 
1130 A77A 1007  14        JMP  JOYSTB
1131               *      Confused condition
1132 A77C 0281  22 JOYST9 CI   R1,CN_CONF          * Check for confusion
     A77E 0003 
1133 A780 1604  14        JNE  JOYSTB
1134 A782 0520  36        NEG  @JMPDX              * Invert x movement
     A784 834C 
1135 A786 0520  36        NEG  @JMPDY              * Invert y movement
     A788 834E 
1136               *      Return
1137 A78A 064A  14 JOYSTB DECT R10                 * Pop return address off the stack
1138 A78C C2DA  26        MOV  *R10,R11
1139 A78E 045B  20        B    *R11
1140               *// JOYST
1141               
1142               ***************************************************************************
1143               *
1144               * Move ball
1145               *
1146 A790 CE8B  34 MOVBAL MOV  R11,*R10+           * Push return address onto the stack
1151               *      Animate ball
1152 A792 C060  34        MOV  @JMPFRM,R1          * Get animation frame
     A794 8348 
1153 A796 C020  34        MOV  @COND,R0
     A798 8378 
1154 A79A 0280  22        CI   R0,CN_SPED          * Check for speed condition
     A79C 0004 
1155 A79E 1305  14        JEQ  MOVBAG
1156 A7A0 0200  20        LI   R0,1                * Check for odd frame
     A7A2 0001 
1157 A7A4 2040  18        COC  R0,R1
1158 A7A6 1672  14        JNE  MOVBA2              * Skip even frames
1159 A7A8 0911  56        SRL  R1,1                * Shift out least significant bit
1160 A7AA C020  34 MOVBAG MOV  @DIED,R0            * Check if died
     A7AC 8370 
1161 A7AE 1655  14        JNE  MOVBAE
1162               *      If jump length now has the bits x5 x4 x3 x2 x1 x0
1163               *      For jump length 1 we want x3 x2 x1 x0: 0,1,2,3,...,15
1164               *      For jump length 2 we want x4 x3 x2 x0: 0,1,0,1,2,3,2,3,...,14,15,14,15
1165               *      For jump length 3 we want x5 x4 x3 x0: 0,1,0,1,0,1,0,1,2,3,2,3,2,3,2,3,...,14,15,14,15,14,15,14,15
1166               *      To use as index in the jump pattern and height tables
1167 A7B0 C020  34        MOV  @JMPLEN,R0          * Get jump length
     A7B2 8352 
1168 A7B4 130A  14        JEQ  MOVBA6              * Check for zero
1169 A7B6 C081  18        MOV  R1,R2               * Copy frame to R2
1170 A7B8 0600  14        DEC  R0                  * Prepare to shift jumpLength - 1
1171 A7BA 1301  14        JEQ  MOVBA8              * No shift if zero
1172 A7BC 0902  56        SRL  R2,0                * Shift
1173 A7BE 0242  22 MOVBA8 ANDI R2,>000E            * Only keep 3 bits
     A7C0 000E 
1174 A7C2 0241  22        ANDI R1,>0001            * Plus the least significant bit
     A7C4 0001 
1175 A7C6 E042  18        SOC  R2,R1               * OR them together to get 4 bits
1176 A7C8 1003  14        JMP  MOVBA5
1177               *      Jump length 0 - no movement
1178 A7CA 04C2  14 MOVBA6 CLR  R2
1179 A7CC 04C5  14        CLR  R5
1180 A7CE 1004  14        JMP  MOVBA7
1181 A7D0 D0A1  34 MOVBA5 MOVB @JMPPAT(R1),R2      * Get sprite pattern to display
     A7D2 B7FC 
1182 A7D4 D161  34        MOVB @JMPHGT(R1),R5      * Get height change
     A7D6 B80C 
1183               *      Horizontal movement
1184 A7D8 04C6  14 MOVBA7 CLR  R6
1185 A7DA D820  54        MOVB @SPRATT+1,@R6LB     * Get x position
     A7DC B835 
     A7DE 830D 
1186 A7E0 C0E0  34        MOV  @JMPDX,R3           * Check jump direction
     A7E2 834C 
1187 A7E4 A0E0  34        A    @MOVDXV,R3          * Adjust for scrolling
     A7E6 8358 
1188 A7E8 1309  14        JEQ  MOVBA3
1189 A7EA 1504  14        JGT  MOVBA4
1190 A7EC 0286  22        CI   R6,0                * Check left boundary
     A7EE 0000 
1191 A7F0 1505  14        JGT  MOVBA3
1192 A7F2 1003  14        JMP  MOVBA9
1193 A7F4 0286  22 MOVBA4 CI   R6,256-80           * Check right boundary
     A7F6 00B0 
1194 A7F8 1101  14        JLT  MOVBA3
1195 A7FA 04C3  14 MOVBA9 CLR  R3                  * Stop movement
1196 A7FC 06C3  14 MOVBA3 SWPB R3
1197               *      Vertical movement
1198 A7FE 04C7  14        CLR  R7
1199 A800 D820  54        MOVB @SPRATT,@R7LB       * Get y position
     A802 B834 
     A804 830F 
1200 A806 C120  34        MOV  @JMPDY,R4           * Get jump direction
     A808 834E 
1201 A80A A120  34        A    @MOVDYV,R4          * Adjust for scrolling
     A80C 835A 
1202 A80E 1309  14        JEQ  MOVBA1
1203 A810 1504  14        JGT  MOVBAB
1204 A812 0287  22        CI   R7,0                * Check top boundary
     A814 0000 
1205 A816 1505  14        JGT  MOVBA1
1206 A818 1003  14        JMP  MOVBAC
1207 A81A 0287  22 MOVBAB CI   R7,192-17           * Check bottom boundary
     A81C 00AF 
1208 A81E 1101  14        JLT  MOVBA1
1209 A820 04C4  14 MOVBAC CLR  R4                  * Stop movement
1210 A822 06C4  14 MOVBA1 SWPB R4
1211 A824 0200  20        LI   R0,ABALL+SPRATT     * Address of sprite attributes in CPU RAM
     A826 B834 
1212               *      Top layer
1213 A828 BC04  32        AB   R4,*R0+
1214 A82A BC03  32        AB   R3,*R0+
1215 A82C DC02  32        MOVB R2,*R0+             * Set pattern
1216 A82E 0580  14        INC  R0                  * Advance to y attribute of next sprite
1217               *      Bottom layer
1218 A830 BC04  32        AB   R4,*R0+
1219 A832 BC03  32        AB   R3,*R0+
1220 A834 0222  22        AI   R2,>0400            * Next pattern
     A836 0400 
1221 A838 DC02  32        MOVB R2,*R0+             * Set pattern
1222 A83A 0580  14        INC  R0                  * Advance to y attribute of next sprite
1223               *      Shadow
1224 A83C 0200  20        LI   R0,ASHADW+SPRATT
     A83E B868 
1225 A840 B404  30        AB   R4,*R0
1226 A842 BC05  32        AB   R5,*R0+             * Add to y
1227 A844 B403  30        AB   R3,*R0
1228 A846 BC05  32        AB   R5,*R0+             * Add to x
1229 A848 D402  30        MOVB R2,*R0              * Set pattern
1230               *      Record height
1231 A84A 0885  56        SRA  R5,8                * Height change
1232 A84C A805  38        A    R5,@JMPZ            * Add to total height
     A84E 8350 
1233               *      Clear scroll adjustment variables
1234 A850 04E0  34        CLR  @MOVDXV
     A852 8358 
1235 A854 04E0  34        CLR  @MOVDYV
     A856 835A 
1236 A858 1019  14        JMP  MOVBA2
1237               *      Animate when died
1238 A85A 0921  56 MOVBAE SRL  R1,2
1239 A85C 0281  22        CI   R1,11
     A85E 000B 
1240 A860 1513  14        JGT  MOVBAF
1241 A862 0A11  56        SLA  R1,1
1242 A864 0221  22        AI   R1,DIEPAT
     A866 B81C 
1243 A868 0200  20        LI   R0,SPRATT+ABALL+2   * Address of pattern attribute in CPU RAM
     A86A B836 
1244 A86C D431  40        MOVB *R1+,*R0
1245 A86E 0220  22        AI   R0,4
     A870 0004 
1246 A872 D411  38        MOVB *R1,*R0
1247 A874 0200  20        LI   R0,SPRATT+ASHADW
     A876 B868 
1248 A878 CC20  50        MOV  @SPRATT+ABALL,*R0+  * Place shadow directly under ball
     A87A B834 
1249 A87C D411  38        MOVB *R1,*R0
1250 A87E 0201  20        LI   R1,1
     A880 0001 
1251 A882 06A0  32        BL   @DECNRG
     A884 B252 
1252 A886 1002  14        JMP  MOVBA2
1253 A888 0720  34 MOVBAF SETO @DIED
     A88A 8370 
1254               *      Next animation frame
1255 A88C 05A0  34 MOVBA2 INC  @JMPFRM
     A88E 8348 
1256               *      Return
1257 A890 064A  14        DECT R10                 * Pop return address off the stack
1258 A892 C2DA  26        MOV  *R10,R11
1259 A894 045B  20        B    *R11
1260               *// MOVBAL
1261               
1262               ***************************************************************************
1263               *
1264               * Move enemies
1265               *
1266 A896 CE8B  34 MOVENM MOV  R11,*R10+           * Push return address onto the stack
1271 A898 0203  20        LI   R3,ENMLST           * Pointer to enemy list
     A89A D8FE 
1272 A89C C113  26 MOVEN1 MOV  *R3,R4              * Get first word of enemy structure
1273 A89E 1602  14        JNE  MOVENF
1274 A8A0 0460  28        B    @MOVEN9             * Zero terminates list
     A8A2 A9DA 
1275               *      Check y position
1276 A8A4 C123  34 MOVENF MOV  @ENM_Y(R3),R4       * Get y position in map coordinates
     A8A6 0004 
1277 A8A8 6120  34        S    @SCRLY,R4           * Subtract scroll position to get screen coordinate
     A8AA 8344 
1278 A8AC 0224  22        AI   R4,-Y_DIFF          * Adjustment
     A8AE FFFD 
1279 A8B0 0284  22        CI   R4,-16              * Check if above screen
     A8B2 FFF0 
1280 A8B4 1104  14        JLT  MOVENZ
1281 A8B6 0284  22        CI   R4,191              * Check if below screen
     A8B8 00BF 
1282 A8BA 1501  14        JGT  MOVENZ
1283 A8BC 1002  14        JMP  MOVENX
1284 A8BE 0460  28 MOVENZ B    @MOVEN4
     A8C0 A9BE 
1285               *      Check x position
1286 A8C2 C163  34 MOVENX MOV  @ENM_X(R3),R5       * Get x position
     A8C4 0002 
1287 A8C6 0285  22        CI   R5,0                * Check if off left
     A8C8 0000 
1288 A8CA 1179  14        JLT  MOVEN4
1289 A8CC 0285  22        CI   R5,256-80           * Check if off right
     A8CE 00B0 
1290 A8D0 1576  14        JGT  MOVEN4
1291               *      Check if sprite allocated
1292 A8D2 C023  34        MOV  @ENM_AT(R3),R0      * Get attributes address
     A8D4 000E 
1293 A8D6 160F  14        JNE  MOVEN3              * Jump if already allocated
1294               *      Allocate sprite
1295 A8D8 0200  20        LI   R0,SPRATT+AENEMY
     A8DA B83C 
1296 A8DC 0202  20        LI   R2,NENEMY
     A8DE 0004 
1297 A8E0 9420  46 MOVEN2 CB   @BYTEC0,*R0
     A8E2 8334 
1298 A8E4 1603  14        JNE  MOVEN6
1299               *      Found one
1300 A8E6 C8C0  38        MOV  R0,@ENM_AT(R3)      * Save attribute address
     A8E8 000E 
1301 A8EA 1005  14        JMP  MOVEN3
1302 A8EC 0220  22 MOVEN6 AI   R0,8
     A8EE 0008 
1303 A8F0 0602  14        DEC  R2
1304 A8F2 16F6  14        JNE  MOVEN2
1305               *      Cannot allocate sprite
1306 A8F4 106E  14        JMP  MOVEN7              * Next enemy
1307               *      Pattern
1308 A8F6 C1A0  34 MOVEN3 MOV  @FRAME,R6
     A8F8 8338 
1309 A8FA 0246  22        ANDI R6,>0018
     A8FC 0018 
1310 A8FE A1A3  34        A    @ENM_PT(R3),R6
     A900 000A 
1311               *      Color
1312 A902 C1E3  34        MOV  @ENM_CL(R3),R7      * Color
     A904 000C 
1313               *      Write attributes
1314 A906 06C4  14        SWPB R4
1315 A908 06C5  14        SWPB R5
1316 A90A 06C6  14        SWPB R6
1317 A90C DC04  32        MOVB R4,*R0+             * Write y attribute
1318 A90E DC05  32        MOVB R5,*R0+             * Write x attribute
1319 A910 DC06  32        MOVB R6,*R0+             * Write pattern attribute
1320 A912 DC07  32        MOVB R7,*R0+             * Color
1321 A914 0226  22        AI   R6,>0400
     A916 0400 
1322 A918 DC04  32        MOVB R4,*R0+             * Write y attribute
1323 A91A DC05  32        MOVB R5,*R0+             * Write x attribute
1324 A91C DC06  32        MOVB R6,*R0+             * Write pattern attribute
1325 A91E DC20  48        MOVB @R7LB,*R0+          * Color
     A920 830F 
1326               *      Movement
1327 A922 0623  34        DEC  @ENM_CT(R3)         * Count down to movement
     A924 0010 
1328 A926 1655  14        JNE  MOVEN7
1329 A928 0200  20        LI   R0,4
     A92A 0004 
1330 A92C C8C0  38        MOV  R0,@ENM_CT(R3)      * Reset counter
     A92E 0010 
1331 A930 C1E3  34        MOV  @ENM_DX(R3),R7      * dx
     A932 0006 
1332 A934 C223  34        MOV  @ENM_DY(R3),R8      * dy
     A936 0008 
1333               *      Check type
1334 A938 88E0  54        C    @ONE,@ENM_TP(R3)    * Check if type if bounded
     A93A 8330 
     A93C 0000 
1335 A93E 163A  14        JNE  MOVEN5
1336               *      Bounded - check bounds
1337 A940 06C5  14        SWPB R5                  * Move x to LSB
1338 A942 C005  18        MOV  R5,R0               * x
1339 A944 06C4  14        SWPB R4                  * Move y to LSB
1340 A946 C044  18        MOV  R4,R1               * y
1341 A948 C1C7  18        MOV  R7,R7               * Test dx
1342 A94A 1305  14        JEQ  MOVENB
1343 A94C 1102  14        JLT  MOVENA
1344 A94E 0220  22        AI   R0,16               * dx>0: one metatile offset if moving right
     A950 0010 
1345 A952 A007  18 MOVENA A    R7,R0               * dx<>0. x + dx
1346 A954 1002  14        JMP  MOVENG
1347 A956 0220  22 MOVENB AI   R0,8                * dx=0: x+=8 (center x)
     A958 0008 
1348 A95A C208  18 MOVENG MOV  R8,R8               * Test dy
1349 A95C 1305  14        JEQ  MOVEND
1350 A95E 1102  14        JLT  MOVENC
1351 A960 0221  22        AI   R1,16               * dy>0: one metatile offset if moving down
     A962 0010 
1352 A964 A048  18 MOVENC A    R8,R1               * dy<>0: y + dy
1353 A966 1002  14        JMP  MOVENH
1354 A968 0221  22 MOVEND AI   R1,8                * dy=0: y+=8 (center y)
     A96A 0008 
1355 A96C 06A0  32 MOVENH BL   @GETMT              * Get metatile at R0,R1
     A96E AED4 
1356               *                               * On return R0=meta tile, R1=map address
1357 A970 0280  22        CI   R0,MTTILE           * Check if moving on tile
     A972 0000 
1358 A974 131F  14        JEQ  MOVEN5
1359               *      Change velocity 90 degress
1360 A976 06A0  32        BL   @RAND               * Let chance decide which way to turn
     A978 B6EC 
1361 A97A 1101  14        JLT  MOVEN8
1362 A97C 0507  16        NEG  R7                  * -dx (turn left)
1363               *      Check new position
1364 A97E C005  18 MOVEN8 MOV  R5,R0               * x
1365 A980 C044  18        MOV  R4,R1               * y
1366 A982 C208  18        MOV  R8,R8               * Test dy
1367 A984 1302  14        JEQ  MOVENI
1368 A986 A008  18        A    R8,R0               * x + dy
1369 A988 1002  14        JMP  MOVENJ
1370 A98A 0220  22 MOVENI AI   R0,8                * Center x
     A98C 0008 
1371 A98E C1C7  18 MOVENJ MOV  R7,R7               * Text dx
1372 A990 1302  14        JEQ  MOVENK
1373 A992 A047  18        A    R7,R1               * y +/- dx
1374 A994 1002  14        JMP  MOVENL
1375 A996 0221  22 MOVENK AI   R1,8                * Center y
     A998 0008 
1376 A99A 06A0  32 MOVENL BL   @GETMT
     A99C AED4 
1377 A99E 0280  22        CI   R0,MTTILE           * Check if moving on tile
     A9A0 0000 
1378 A9A2 1301  14        JEQ  MOVENE
1379               *      Go with other direction
1380 A9A4 0507  16        NEG  R7
1381               *      Swap dx and dy
1382 A9A6 C247  18 MOVENE MOV  R7,R9               * tmp=dx
1383 A9A8 C1C8  18        MOV  R8,R7               * dx=dy
1384 A9AA C209  18        MOV  R9,R8               * dy=tmp
1385 A9AC C8C7  38        MOV  R7,@ENM_DX(R3)      * Write dx (= dy)
     A9AE 0006 
1386 A9B0 C8C8  38        MOV  R8,@ENM_DY(R3)      * Write dy  (= +/-dx)
     A9B2 0008 
1387               *      Move
1388 A9B4 A8C7  38 MOVEN5 A    R7,@ENM_X(R3)       * x += dx
     A9B6 0002 
1389 A9B8 A8C8  38        A    R8,@ENM_Y(R3)       * y += dy
     A9BA 0004 
1390 A9BC 100A  14        JMP  MOVEN7
1391               *      Disable
1392 A9BE C023  34 MOVEN4 MOV  @ENM_AT(R3),R0      * Get attributes address
     A9C0 000E 
1393 A9C2 1307  14        JEQ  MOVEN7              * Jump if not allocated
1394 A9C4 CC20  50        MOV  @BYTEC0,*R0+        * Move out of screen
     A9C6 8334 
1395 A9C8 05C0  14        INCT R0
1396 A9CA CC20  50        MOV  @BYTEC0,*R0+        * Move out of screen
     A9CC 8334 
1397 A9CE 04E3  34        CLR  @ENM_AT(R3)         * Deallocate sprite
     A9D0 000E 
1398               *      Next enemy
1399 A9D2 0223  22 MOVEN7 AI   R3,ENM_SZ
     A9D4 0012 
1400 A9D6 0460  28        B    @MOVEN1
     A9D8 A89C 
1401               *      Return
1402 A9DA 064A  14 MOVEN9 DECT R10                 * Pop return address off the stack
1403 A9DC C2DA  26        MOV  *R10,R11
1404 A9DE 045B  20        B    *R11
1405               *// MOVENM
1406               
1407               ***************************************************************************
1408               *
1409               * Display sparkle sprites
1410               *
1411 A9E0 CE8B  34 SPARKL MOV  R11,*R10+           * Push return address onto the stack
1416 A9E2 C020  34        MOV  @FRAME,R0           * Only run very 4th frame
     A9E4 8338 
1417 A9E6 0240  22        ANDI R0,3
     A9E8 0003 
1418 A9EA 1630  14        JNE  SPARK4
1419 A9EC 04C0  14        CLR  R0
1420 A9EE 0201  20        LI   R1,SPRATT+ASPARK    * Attribute pointer
     A9F0 B85C 
1421 A9F2 0202  20        LI   R2,NSPARK           * Counter
     A9F4 0003 
1422 A9F6 9460  46 SPARK1 CB   @BYTEC0,*R1         * Check for out of screen
     A9F8 8334 
1423 A9FA 1324  14        JEQ  SPARK2              * Skip if so
1424 A9FC D021  34        MOVB @2(R1),R0           * Read the current pattern
     A9FE 0002 
1425 AA00 0280  22        CI   R0,PXBALL*256       * Check if it's a gift
     AA02 C000 
1426 AA04 1417  14        JHE  SPARK6
1427 AA06 0220  22        AI   R0,>0100            * Add one to the pattern
     AA08 0100 
1428 AA0A 0280  22        CI   R0,PSPARK+16*256    * Check if it's the last one
     AA0C 4000 
1429 AA0E 1306  14        JEQ  SPARK3
1430 AA10 D840  38        MOVB R0,@2(R1)           * Set pattern
     AA12 0002 
1431 AA14 0200  20        LI   R0,>0100            * y offset
     AA16 0100 
1432 AA18 B440  30        AB   R0,*R1              * Move y
1433 AA1A 1014  14        JMP  SPARK2              * Next
1434               *      Done with sparkles
1435 AA1C C0E0  34 SPARK3 MOV  @PGIFT,R3           * Get gift pattern and color
     AA1E 837C 
1436 AA20 0283  22        CI   R3,16               * If no gift or another gift visible
     AA22 0010 
1437 AA24 120D  14        JLE  SPARK5              * then remove the sprite
1438 AA26 C843  38        MOV  R3,@2(R1)           * Set gift pattern and color
     AA28 0002 
1439 AA2A 0203  20        LI   R3,16               * Number of frame where gift will be visible
     AA2C 0010 
1440 AA2E C803  38        MOV  R3,@PGIFT           * Set counter
     AA30 837C 
1441 AA32 1008  14        JMP  SPARK2
1442               *      Count down while displaying gift pattern
1443 AA34 0200  20 SPARK6 LI   R0,>0100            * y offset
     AA36 0100 
1444 AA38 B440  30        AB   R0,*R1              * Move y
1445               ;       MOV  @PGIFT,R0
1446               ;       ANDI R0,>000F
1447               ;       SWPB R0
1448               ;       MOVB R0,@3(R1)
1449 AA3A 0620  34        DEC  @PGIFT              * Decrement counter
     AA3C 837C 
1450 AA3E 1602  14        JNE  SPARK2
1451               *      Remove sprite
1452 AA40 D460  46 SPARK5 MOVB @BYTEC0,*R1
     AA42 8334 
1453               *      Next sprite
1454 AA44 0221  22 SPARK2 AI   R1,4
     AA46 0004 
1455 AA48 0602  14        DEC  R2
1456 AA4A 16D5  14        JNE  SPARK1
1457               *      Return
1458 AA4C 064A  14 SPARK4 DECT R10                 * Pop return address off the stack
1459 AA4E C2DA  26        MOV  *R10,R11
1460 AA50 045B  20        B    *R11
1461               *// SPARKL
1462               
1463               ***************************************************************************
1464               *
1465               * Check for quit
1466               *
1467 AA52 CE8B  34 CKQUIT MOV  R11,*R10+           * Push return address onto the stack
1472 AA54 04C1  14        CLR  R1                  * Test column 0
1473 AA56 020C  20        LI   R12,>0024           * Address for column selection
     AA58 0024 
1474 AA5A 30C1  56        LDCR R1,3                * Select column
1475 AA5C 020C  20        LI   R12,>0006           * Address to read rows
     AA5E 0006 
1476 AA60 3601  64        STCR R1,8
1477 AA62 0241  22        ANDI R1,>1100
     AA64 1100 
1478 AA66 1303  14        JEQ  QUIT
1479               *      Return
1480 AA68 064A  14        DECT R10                 * Pop return address off the stack
1481 AA6A C2DA  26        MOV  *R10,R11
1482 AA6C 045B  20        B    *R11
1483               *      Quit
1484 AA6E 0420  54 QUIT   BLWP @>0000
     AA70 0000 
1485               
1486               ***************************************************************************
1487               *
1488               * Set name table
1489               *
1490               * Altenate between tables 0 and 1 in frames 0-7
1491               * Alternate between tables 2 and 3 in frames 8-15
1492               *
1493               * Tables 0 and 2 contain 'names' from the low character set (0-127)
1494               * Tables 1 and 3 contain 'names' from the high character set (128-255)
1495               *
1496               * Modifies R0
1497               *
1498 AA72 CE8B  34 SETNT  MOV  R11,*R10+           * Push return address onto the stack
1499 AA74 C020  34        MOV  @SCRLY,R0           * Get scroll offset
     AA76 8344 
1500 AA78 2020  38        COC  @EIGHT,R0           * Check which table set to use
     AA7A 8332 
1501 AA7C 1309  14        JEQ  SETNT2
1502 AA7E 2020  38        COC  @ONE,R0             * Check which table to use
     AA80 8330 
1503 AA82 1303  14        JEQ  SETNT1
1504 AA84 0200  20        LI   R0,>020A            * NAMET0
     AA86 020A 
1505 AA88 100B  14        JMP  SETNT4
1506 AA8A 0200  20 SETNT1 LI   R0,>020B            * NAMET1
     AA8C 020B 
1507 AA8E 1008  14        JMP  SETNT4
1508 AA90 2020  38 SETNT2 COC  @ONE,R0             * Check which table to use
     AA92 8330 
1509 AA94 1303  14        JEQ  SETNT3
1510 AA96 0200  20        LI   R0,>020C            * NAMET2
     AA98 020C 
1511 AA9A 1002  14        JMP  SETNT4
1512 AA9C 0200  20 SETNT3 LI   R0,>020D            * NAMET3
     AA9E 020D 
1513               *      Update register 2
1514 AAA0 06A0  32 SETNT4 BL   @VWTR
     AAA2 B660 
1515               *      Return
1516 AAA4 064A  14        DECT R10                 * Pop return address off the stack
1517 AAA6 C2DA  26        MOV  *R10,R11
1518 AAA8 045B  20        B    *R11
1519               *// SETNT
1520               
1521               ***************************************************************************
1522               *
1523               * Update pattern and color tables
1524               *
1525               * Alternate between updating low (0-127) or high (128-255) half of
1526               * the character set. The set that is updated is not used (and therefore
1527               * not visible) in the currently displayed name table. This provides the
1528               * desired double buffering effect.
1529               *
1530               * Modifies R0-R3
1531               *
1532 AAAA CE8B  34 UPDPT  MOV  R11,*R10+           * Push return address onto the stack
1533 AAAC C0E0  34        MOV  @SCRLYO,R3          * Get old scroll offset
     AAAE 8346 
1534               *      Calculate VDP RAM destination address
1535 AAB0 20E0  38        COC  @ONE,R3             * Check which character set to update
     AAB2 8330 
1536 AAB4 1303  14        JEQ  UPDPT1
1537 AAB6 0200  20        LI   R0,PTRNTB+>400      * Update high character set (128-255)
     AAB8 0400 
1538 AABA 1002  14        JMP  UPDPT2
1539 AABC 0200  20 UPDPT1 LI   R0,PTRNTB           * Update low character set (128-255)
     AABE 0000 
1540               *      Calculate CPU RAM source address
1541 AAC0 0201  20 UPDPT2 LI   R1,7                * Start with last frame
     AAC2 0007 
1542 AAC4 6043  18        S    R3,R1               * Subtract scroll frame
1543 AAC6 0581  14        INC  R1                  * Adjust for direction
1544 AAC8 0241  22        ANDI R1,>0007            * Mod 8
     AACA 0007 
1545 AACC 3860  72        MPY  @STLNUM,R1          * Multiply by number of patterns
     AACE B88C 
1546 AAD0 C042  18        MOV  R2,R1               * Get result back
1547 AAD2 0A31  56        SLA  R1,3                * 8 bytes per pattern
1548 AAD4 0221  22        AI   R1,PTFRM0
     AAD6 D9A2 
1549               *      Use the value of the scroll counter SCRLCT
1550               *      to determine which tables to update this frame
1551 AAD8 C0A0  34        MOV  @SCRLCT,R2          * Get scroll counter
     AADA 833E 
1552 AADC 0A12  56        SLA  R2,1                * Convert to word offset
1553 AADE C0A2  34        MOV  @JMPTBL(R2),R2      * Get address from jump table
     AAE0 AB7C 
1554 AAE2 0452  20        B    *R2                 * Branch
1555               *      Scroll counter 0         * 1st pattern table
1556 AAE4 C0A0  34 UPDPT3 MOV  @STLNU2,R2          * First 2/3 of patterns
     AAE6 B88E 
1557 AAE8 06A0  32        BL   @VM8BW
     AAEA B52C 
1558 AAEC 1044  14        JMP  UPDPT9
1559               *      Scroll counter 1
1560 AAEE 0220  22 UPDPT4 AI   R0,>800             * 2nd pattern table
     AAF0 0800 
1561 AAF2 C0A0  34        MOV  @STLNU2,R2          * First 2/3 of patterns
     AAF4 B88E 
1562 AAF6 06A0  32        BL   @VM8BW
     AAF8 B52C 
1563 AAFA 103D  14        JMP  UPDPT9
1564               *      Scroll counter 2
1565 AAFC 0220  22 UPDPT5 AI   R0,>1000            * 3rd pattern table
     AAFE 1000 
1566 AB00 C0A0  34        MOV  @STLNU2,R2          * First 2/3 of patterns
     AB02 B88E 
1567 AB04 06A0  32        BL   @VM8BW
     AB06 B52C 
1568 AB08 1036  14        JMP  UPDPT9
1569               *      Scroll counter 3
1570 AB0A 0220  22 UPDPT6 AI   R0,COLRTB           * Color table
     AB0C 2000 
1571 AB0E 0221  22        AI   R1,CLFRM0-PTFRM0    * Add offset between patterns and colors
     AB10 1300 
1572 AB12 C0A0  34        MOV  @STLNU2,R2          * First 2/3 of patterns
     AB14 B88E 
1573 AB16 06A0  32        BL   @VM8BW
     AB18 B52C 
1574 AB1A 102D  14        JMP  UPDPT9
1575               *      Scroll counter 4
1576 AB1C C0A0  34 UPDPT7 MOV  @STLNU3,R2          * Last 1/3 of pattern 1,2
     AB1E B890 
1577 AB20 132A  14        JEQ  UPDPT9              * No more
1578 AB22 C0E0  34        MOV  @STLNU2,R3
     AB24 B88E 
1579 AB26 0A33  56        SLA  R3,3                * Offset to last 1/3
1580 AB28 A003  18        A    R3,R0               * Add to destination
1581 AB2A A043  18        A    R3,R1               * Add to source
1582 AB2C C100  18        MOV  R0,R4
1583 AB2E C141  18        MOV  R1,R5
1584 AB30 06A0  32        BL   @VM8BW              * 1st pattern table
     AB32 B52C 
1585 AB34 C004  18        MOV  R4,R0
1586 AB36 0220  22        AI   R0,>800             * 2nd pattern table
     AB38 0800 
1587 AB3A C045  18        MOV  R5,R1
1588 AB3C C0A0  34        MOV  @STLNU3,R2          * Last 1/3
     AB3E B890 
1589 AB40 06A0  32        BL   @VM8BW
     AB42 B52C 
1590 AB44 1018  14        JMP  UPDPT9
1591               *      Scroll counter 5
1592 AB46 C0A0  34 UPDPT8 MOV  @STLNU3,R2          * Last 1/3
     AB48 B890 
1593 AB4A 1315  14        JEQ  UPDPT9              * No more
1594 AB4C C0E0  34        MOV  @STLNU2,R3
     AB4E B88E 
1595 AB50 0A33  56        SLA  R3,3                * Offset to last 1/3
1596 AB52 A003  18        A    R3,R0               * Add to destination
1597 AB54 A043  18        A    R3,R1               * Add to source
1598 AB56 C100  18        MOV  R0,R4
1599 AB58 C141  18        MOV  R1,R5
1600 AB5A 0220  22        AI   R0,>1000            * 3nd pattern table
     AB5C 1000 
1601 AB5E 06A0  32        BL   @VM8BW
     AB60 B52C 
1602 AB62 C004  18        MOV  R4,R0
1603 AB64 0220  22        AI   R0,COLRTB           * Color table
     AB66 2000 
1604 AB68 C045  18        MOV  R5,R1
1605 AB6A 0221  22        AI   R1,CLFRM0-PTFRM0    * Add offset between patterns and colors
     AB6C 1300 
1606 AB6E C0A0  34        MOV  @STLNU3,R2          * Last 1/3
     AB70 B890 
1607 AB72 06A0  32        BL   @VM8BW
     AB74 B52C 
1608               *      Return
1609 AB76 064A  14 UPDPT9 DECT R10                 * Pop return address off the stack
1610 AB78 C2DA  26        MOV  *R10,R11
1611 AB7A 045B  20        B    *R11
1612               *      Jump table
1613 AB7C AAE4     JMPTBL DATA UPDPT3,UPDPT4,UPDPT5,UPDPT6,UPDPT7,UPDPT8
     AB7E AAEE 
     AB80 AAFC 
     AB82 AB0A 
     AB84 AB1C 
     AB86 AB46 
1614               *// UPDPT
1615               
1616               ***************************************************************************
1617               *
1618               * Update name table off-screen buffer
1619               *
1620               * The prepared buffers have a one row (8 pixels) offset from
1621               * from the currently visible buffers.
1622               *
1623               * Altenate between updating table buffers 2 and 3 in frames 0-7
1624               * Alternate between updating table buffers 0 and 1 in frames 8-15
1625               *
1626               * Since we have 8 frames to update two buffers we need to update
1627               * 1/4 buffer each frame, i.e. 6 screen rows. First frame we update
1628               * rows 0-5 of the first buffer. Second frame we update the same 6
1629               * rows of the second buffer, but this time we set the most significant
1630               * bit to use the high character set. Third frame we update rows 6-11
1631               * of the first buffer, and so on.
1632               *
1633               * Because is this case we only scroll every 6th frame (according to
1634               * when @SCRLCT is zero) we only have to update 1/6 of the usual, i.e.
1635               * one row each time the routine is called. The scroll counter offset
1636               * is used to determine which row to update.
1637               *
1638               * Modifies R0-R4
1639               *
1640 AB88 CE8B  34 UPDNT  MOV  R11,*R10+           * Push return address onto the stack
1641 AB8A C120  34        MOV  @SCRLCT,R4          * Get scroll counter 5,4,3,2,1,0
     AB8C 833E 
1643 AB8E C144  18        MOV  R4,R5
1644 AB90 3960  72        MPY  @M_MAPW,R5          * Map scroll counter offset = scroll counter * MAPW
     AB92 8336 
1645 AB94 C146  18        MOV  R6,R5
1646 AB96 0A54  56        SLA  R4,5                * Screen scroll counter offset = scroll counter * 32
1651 AB98 C0E0  34        MOV  @SCRLY,R3           * Get scroll position
     AB9A 8344 
1652 AB9C 0243  22        ANDI R3,>000F            * Frame = position mod 16
     AB9E 000F 
1653               *      Calculate row offset to the 1/4 of the buffer to update
1654 ABA0 C003  18        MOV  R3,R0               * Start with frame number
1655 ABA2 0240  22        ANDI R0,>0006            * Transform to sequence: 0,0,2,2,4,4,6,6...
     ABA4 0006 
1656 ABA6 C080  18        MOV  R0,R2               * Copy to R2
1657 ABA8 0A10  56        SLA  R0,1                * Multiply by 2
1658 ABAA A080  18        A    R0,R2               * Add to R2 to multiply by 3 and get row offset: 0,0,6,6,12,12,18,18...
1659 ABAC C002  18        MOV  R2,R0               * Copy back into R0 for later
1660               *      Calculate map source address in R1
1661 ABAE C060  34        MOV  @SCRLY,R1           * Get scroll offset in pixels
     ABB0 8344 
1662 ABB2 0931  56        SRL  R1,3                * Divide by 8 to get row offset
1663 ABB4 0601  14        DEC  R1                  * Prepared buffer has a 1 row offset
1664 ABB6 A042  18        A    R2,R1               * Add the row offset we calculated before
1666 ABB8 3860  72        MPY  @M_MAPW,R1          * Multiply by MAPW to get character offset
     ABBA 8336 
1671 ABBC 0201  20        LI   R1,MAP              * Get the map base address
     ABBE 2300 
1672 ABC0 A042  18        A    R2,R1               * Add the character offset
1673 ABC2 A045  18        A    R5,R1               * Add map scroll counter offset
1677               *      Calculate buffer destination address in R0
1678 ABC4 0A50  56        SLA  R0,5                * Convert row offset to screen character offset
1679 ABC6 A004  18        A    R4,R0               * Add screen scroll counter offset
1680               *      Decide which buffer to update
1681 ABC8 20E0  38        COC  @EIGHT,R3           * Bit weight >08 determines the group
     ABCA 8332 
1682 ABCC 1609  14        JNE  UPDNT2              * If not set we update buffer 2 or 3
1683 ABCE 20E0  38        COC  @ONE,R3             * Bit weight >01 determines the buffer
     ABD0 8330 
1684 ABD2 1303  14        JEQ  UPDNT1
1685 ABD4 0220  22        AI   R0,NAMET0           * Add base address to character offset
     ABD6 2800 
1686 ABD8 100B  14        JMP  UPDNT4
1687 ABDA 0220  22 UPDNT1 AI   R0,NAMET1           * Add base address to character offset
     ABDC 2C00 
1688 ABDE 1008  14        JMP  UPDNT4
1689 ABE0 20E0  38 UPDNT2 COC  @ONE,R3             * Bit weight >01 determines the buffer
     ABE2 8330 
1690 ABE4 1303  14        JEQ  UPDNT3
1691 ABE6 0220  22        AI   R0,NAMET2           * Add base address to character offset
     ABE8 3000 
1692 ABEA 1002  14        JMP  UPDNT4
1693 ABEC 0220  22 UPDNT3 AI   R0,NAMET3           * Add base address to character offset
     ABEE 3400 
1694               *      Copy to VDP RAM buffer
1695 ABF0 0202  20 UPDNT4 LI   R2,VIEWW/8          * Number of 8 character groups to copy
     ABF2 0003 
1696 ABF4 20E0  38        COC  @ONE,R3             * High or low character set copy?
     ABF6 8330 
1697 ABF8 1303  14        JEQ  UPDNT5
1698 ABFA 06A0  32        BL   @VM8BW              * Low character set
     ABFC B52C 
1699 ABFE 1002  14        JMP  UPDNT6
1700 AC00 06A0  32 UPDNT5 BL   @VM8BHW             * High character set
     AC02 B540 
1701               *      Return
1702 AC04 064A  14 UPDNT6 DECT R10                 * Pop return address off the stack
1703 AC06 C2DA  26        MOV  *R10,R11
1704 AC08 045B  20        B    *R11
1705               *// UPDNT
1706               
1707               ***************************************************************************
1708               *
1709               * Set graphics mode
1710               *
1711 AC0A CE8B  34 GMODE  MOV  R11,*R10+           * Push return address onto the stack
1712 AC0C 04C0  14        CLR  R0
1713 AC0E 0201  20        LI   R1,VREGS
     AC10 AC48 
1714 AC12 0202  20        LI   R2,8
     AC14 0008 
1715 AC16 D831  48 GMODE1 MOVB *R1+,@R0LB
     AC18 8301 
1716 AC1A 06A0  32        BL   @VWTR               * Set register
     AC1C B660 
1717 AC1E 0220  22        AI   R0,>0100
     AC20 0100 
1718 AC22 0602  14        DEC  R2
1719 AC24 16F8  14        JNE  GMODE1
1720               *      Clear VDP RAM
1721 AC26 04C0  14        CLR  R0
1722 AC28 04C1  14        CLR  R1
1723 AC2A 0202  20        LI   R2,>4000
     AC2C 4000 
1724 AC2E 06A0  32        BL   @VSMW
     AC30 B60C 
1725               *      Initialize the Color Table
1726 AC32 0200  20        LI   R0,COLRTB
     AC34 2000 
1727 AC36 0201  20        LI   R1,>F000            * White pixels on transparent background
     AC38 F000 
1728 AC3A 0202  20        LI   R2,>800
     AC3C 0800 
1729 AC3E 06A0  32        BL   @VSMW
     AC40 B60C 
1730               *      Return
1731 AC42 064A  14        DECT R10                 * Pop return address off the stack
1732 AC44 C2DA  26        MOV  *R10,R11
1733 AC46 045B  20        B    *R11
1734 AC48 02E2     VREGS  BYTE >02                 * Graphics II mode
1735                      BYTE >E2                 * 16K, display on, interrupt enabled
1736 AC4A 0D9F            BYTE >0D                 * NAMETB = >3400
1737                      BYTE >9F                 * COLRTB = >2000, >800 bytes
1738 AC4C 033F            BYTE >03                 * PTRNTB = >0000, >1800 bytes
1739                      BYTE >3F                 * SPRATB = >1F80
1740 AC4E 0300            BYTE >03                 * SPRPTB = >1800
1741                      BYTE >00                 * Backdrop color
1742               *// GMODE
1743               
1744               ***************************************************************************
1745               *
1746               * Unpack meta tile map from nybbles to bytes
1747               *
1748               * R0: Source address of compressed meta tile map
1749               * R1: Destination address of unpacked map
1750               *
1751 AC50 0202  20 UNPACK LI   R2,MAPW*MAPH/16
     AC52 00C0 
1752 AC54 C130  30 UNPAC1 MOV  *R0+,R4
1753 AC56 0203  20        LI   R3,4
     AC58 0004 
1754 AC5A C144  18 UNPAC2 MOV  R4,R5
1755 AC5C 0245  22        ANDI R5,>F000
     AC5E F000 
1756 AC60 0945  56        SRL  R5,4
1757 AC62 DC45  32        MOVB R5,*R1+
1758 AC64 0A44  56        SLA  R4,4
1759 AC66 0603  14        DEC  R3
1760 AC68 16F8  14        JNE  UNPAC2
1761 AC6A 0602  14        DEC  R2
1762 AC6C 16F3  14        JNE  UNPAC1
1763               *      Return
1764 AC6E 045B  20        B    *R11
1765               *// EXPMAP
1766               
1767               ***************************************************************************
1768               *
1769               * Expand meta tile map
1770               *
1771               * R0: Address of meta tile map
1772               * R1: Address of meta tile list (each entry 4 bytes)
1773               *
1774               * On return the map is expanded to address MAP.
1775               *
1776 AC70 CE8B  34 EXPMAP MOV  R11,*R10+           * Push return address onto the stack
1777 AC72 0204  20        LI   R4,MAP              * Destination address
     AC74 2300 
1778 AC76 0203  20        LI   R3,MAPH/2           * Meta row counter
     AC78 0040 
1779 AC7A 0202  20 EXPMA1 LI   R2,MAPW/2           * Meta column counter
     AC7C 000C 
1780 AC7E 04C5  14 EXPMA2 CLR  R5
1781 AC80 D170  28        MOVB *R0+,R5             * Get meta tile number
1782 AC82 0965  56        SRL  R5,6                * Convert to offset in list
1783 AC84 A141  18        A    R1,R5               * Add list base address
1784 AC86 CD35  46        MOV  *R5+,*R4+           * Write 2 even row bytes
1785 AC88 C915  46        MOV  *R5,@MAPW-2(R4)     * Write 2 odd row bytes
     AC8A 0016 
1786 AC8C 0602  14        DEC  R2                  * Meta column counter
1787 AC8E 16F7  14        JNE  EXPMA2
1788 AC90 0224  22        AI   R4,MAPW             * Advance destination one row
     AC92 0018 
1789 AC94 0603  14        DEC  R3                  * Meta row counter
1790 AC96 16F1  14        JNE  EXPMA1
1791               *      Return
1792 AC98 064A  14        DECT R10                 * Pop return address off the stack
1793 AC9A C2DA  26        MOV  *R10,R11
1794 AC9C 045B  20        B    *R11
1795               *// EXPMAP
1796               
1797               ***************************************************************************
1798               *
1799               * Initialize the scroll tile map
1800               * and update the tile maps to contain scroll tile entries
1801               *
1802               * On return MAP has been updated
1803               * and @STLNUM contains the number of scroll tiles
1804               *
1805 AC9E CE8B  34 INIST  MOV  R11,*R10+           * Push return address onto the stack
1806               *      Save next MAPW bytes after map
1807               *      LI   R0,ROWBUF
1808               *      LI   R1,MAPE
1809               *      LI   R2,MAPW
1810               *      BL   @COPY
1811               *      Repeat first row after last row
1812 ACA0 0200  20        LI   R0,MAPE             * Repeat first row after last row
     ACA2 2F00 
1813 ACA4 0201  20        LI   R1,MAP              * to allow correctly wrapping scroll
     ACA6 2300 
1814 ACA8 0202  20        LI   R2,MAPW             * tiles to be calculated for last row
     ACAA 0018 
1815 ACAC 06A0  32        BL   @COPY
     ACAE B6AA 
1816               *      Main routine
1817 ACB0 04C0  14        CLR  R0                  * R0 is the index of the highest scroll tile
1818 ACB2 0201  20        LI   R1,MAP              * R1 is the address in the tile map
     ACB4 2300 
1819 ACB6 0202  20        LI   R2,MAPE-MAP         * R2 is number of tiles to update
     ACB8 0C00 
1820 ACBA D0D1  26 INIST1 MOVB *R1,R3              * Get 'scroll to' tile
1821 ACBC 06C3  14        SWPB R3                  * R3 LSB is index of 'scroll to' tile
1822 ACBE D0E1  34        MOVB @MAPW(R1),R3        * R3 MSB is index of 'scroll from' tile
     ACC0 0018 
1823 ACC2 0204  20        LI   R4,STILES           * R4 is the address in the scroll tile map
     ACC4 D806 
1824 ACC6 04C5  14        CLR  R5                  * R5 is index of currently checked scroll tile
1825 ACC8 8005  18 INIST2 C    R5,R0               * Check if last existing scroll tile is reached
1826 ACCA 1309  14        JEQ  NEWST
1827 ACCC 80D4  26        C    *R4,R3              * Check if scroll tile exists
1828 ACCE 1303  14        JEQ  OLDST
1829 ACD0 05C4  14        INCT R4                  * Next word
1830 ACD2 0585  14        INC  R5                  * Next index
1831 ACD4 10F9  14        JMP  INIST2
1832 ACD6 06C5  14 OLDST  SWPB R5
1833 ACD8 D445  30        MOVB R5,*R1              * Update tile map
1834 ACDA 06C5  14        SWPB R5
1835 ACDC 1006  14        JMP  INIST3
1836 ACDE 06C0  14 NEWST  SWPB R0
1837 ACE0 D440  30        MOVB R0,*R1              * Update tile map
1838 ACE2 C503  30        MOV  R3,*R4              * Create new scroll tile entry
1839 ACE4 06C0  14        SWPB R0
1840 ACE6 0580  14        INC  R0                  * Next scroll tile
1841 ACE8 05C4  14        INCT R4
1842 ACEA 0581  14 INIST3 INC  R1                  * Next tile in map
1843 ACEC 0602  14        DEC  R2                  * Decrement counter
1844 ACEE 16E5  14        JNE  INIST1
1845               *      Save number of tiles
1846 ACF0 C800  38        MOV  R0,@STLNUM          * Save number of tiles
     ACF2 B88C 
1847 ACF4 C040  18        MOV  R0,R1               * Dividend
1848 ACF6 04C0  14        CLR  R0                  * Prepare for division
1849 ACF8 0202  20        LI   R2,3                * Divisor
     ACFA 0003 
1850 ACFC 3C02  128        DIV  R2,R0               * Divide by 3
1851 ACFE C080  18        MOV  R0,R2               * Copy quotient
1852 AD00 0A12  56        SLA  R2,1                * 2/3 of tiles
1853 AD02 C802  38        MOV  R2,@STLNU2          * Save it
     AD04 B88E 
1854 AD06 A001  18        A    R1,R0               * Add remainder to last 1/3
1855 AD08 C800  38        MOV  R0,@STLNU3          * Save it
     AD0A B890 
1856               *      Restore next MAPW bytes after map
1857               *      LI   R0,MAPE
1858               *      LI   R1,ROWBUF
1859               *      LI   R2,MAPW
1860               *      BL   @COPY
1861               *      Return
1862 AD0C 064A  14        DECT R10                 * Pop return address off the stack
1863 AD0E C2DA  26        MOV  *R10,R11
1864 AD10 045B  20        B    *R11
1865               *// INIST
1866               
1867               ***************************************************************************
1868               *
1869               * Pre-scroll scroll tiles into 8 frames of increasing scroll offset
1870               *
1871               * R1: Destination address
1872               * R0: Base tile pattern/color address
1873               *
1874 AD12 CE8B  34 PSCRL  MOV  R11,*R10+           * Push return address onto the stack
1875 AD14 04C7  14        CLR  R7                  * R7 is the scroll offset/frame (0-7)
1876 AD16 0202  20 PSCRL0 LI   R2,STILES           * R2 is the address in the scroll tile map
     AD18 D806 
1877 AD1A 04C6  14        CLR  R6                  * R6 is index of current scroll tile
1878 AD1C C0D2  26 PSCRL1 MOV  *R2,R3              * R3 contains indices of from/to tiles
1879 AD1E C1C7  18        MOV  R7,R7               * Check for 0 offset
1880 AD20 130C  14        JEQ  PSCRL3              * Skip 'scroll to' tile if offset is 0
1881 AD22 C103  18        MOV  R3,R4               * R4 LSB is index of 'scroll to' tile
1882 AD24 0244  22        ANDI R4,>00FF            * Clear MSB
     AD26 00FF 
1883 AD28 0A34  56        SLA  R4,3                * Multiply by 8
1884 AD2A 0224  22        AI   R4,8                * Add 8
     AD2C 0008 
1885 AD2E 6107  18        S    R7,R4               * Minus offset
1886 AD30 A100  18        A    R0,R4               * Add base address of CPU RAM patterns
1887 AD32 C147  18        MOV  R7,R5               * Copy 'offset' bytes
1888 AD34 DC74  42 PSCRL2 MOVB *R4+,*R1+           * Copy byte
1889 AD36 0605  14        DEC  R5                  * Decrement counter
1890 AD38 16FD  14        JNE  PSCRL2
1891 AD3A 06C3  14 PSCRL3 SWPB R3
1892 AD3C C103  18        MOV  R3,R4               * R4 LSB is index of 'scroll from' tile
1893 AD3E 0244  22        ANDI R4,>00FF            * Clear MSB
     AD40 00FF 
1894 AD42 0A34  56        SLA  R4,3                * Multiply by 8
1895 AD44 A100  18        A    R0,R4               * Add base address of CPU RAM patterns
1896 AD46 0205  20        LI   R5,8                * Copy 8 bytes
     AD48 0008 
1897 AD4A 6147  18        S    R7,R5               * Minus scroll offset
1898 AD4C DC74  42 PSCRL4 MOVB *R4+,*R1+           * Copy byte
1899 AD4E 0605  14        DEC  R5                  * Decrement counter
1900 AD50 16FD  14        JNE  PSCRL4              * Loop
1901 AD52 05C2  14        INCT R2                  * Next word in scroll tile map
1902 AD54 0586  14        INC  R6                  * Next scroll tile
1903 AD56 8806  38        C    R6,@STLNUM          * Check if all tiles done
     AD58 B88C 
1904 AD5A 16E0  14        JNE  PSCRL1
1905 AD5C 0220  22        AI   R0,8*32
     AD5E 0100 
1906 AD60 0587  14        INC  R7                  * Next offset/frame
1907 AD62 0287  22        CI   R7,8                * Check if last frame
     AD64 0008 
1908 AD66 16D7  14        JNE  PSCRL0
1909               *      Return
1910 AD68 064A  14        DECT R10                 * Pop return address off the stack
1911 AD6A C2DA  26        MOV  *R10,R11
1912 AD6C 045B  20        B    *R11
1913               *// PSCRL
1914               
1915               ***************************************************************************
1916               *
1917               * Display initial screen
1918               *
1919               * Note that the pattern frame that should be uploaded here depends on the
1920               * initial direction of the scrolling. If we want ot start at the bottom and
1921               * scroll up, VPFRM0 should be loaded instead, and @SCRLY should be initilized
1922               * so that the four least significant bits are all ones, e.g. 511.
1923               *
1924 AD6E CE8B  34 INISCR MOV  R11,*R10+           * Push return address onto the stack
1925               *      Upload patterns part 1
1926 AD70 0200  20        LI   R0,PTRNTB           * Destination address in VDP RAM
     AD72 0000 
1927 AD74 0201  20        LI   R1,PTFRM0           * Address of last scrolled pattern frame
     AD76 D9A2 
1928 AD78 C0A0  34        MOV  @STLNUM,R2          * Number of patterns of 8 bytes
     AD7A B88C 
1929 AD7C 06A0  32        BL   @VM8BW              * Call copying routine
     AD7E B52C 
1930 AD80 0200  20        LI   R0,PTRNTB+>400      * Destination address in VDP RAM
     AD82 0400 
1931 AD84 0201  20        LI   R1,PTFRM0           * Address of last scrolled pattern frame
     AD86 D9A2 
1932 AD88 C0A0  34        MOV  @STLNUM,R2          * Number of patterns of 8 bytes
     AD8A B88C 
1933 AD8C 06A0  32        BL   @VM8BW              * Call copying routine
     AD8E B52C 
1934               *      Upload patterns part 2
1935 AD90 0200  20        LI   R0,PTRNT1           * Destination address in VDP RAM
     AD92 0800 
1936 AD94 0201  20        LI   R1,PTFRM0           * Address of last scrolled pattern frame
     AD96 D9A2 
1937 AD98 C0A0  34        MOV  @STLNUM,R2          * Number of patterns of 8 bytes
     AD9A B88C 
1938 AD9C 06A0  32        BL   @VM8BW              * Call copying routine
     AD9E B52C 
1939 ADA0 0200  20        LI   R0,PTRNT1+>400      * Destination address in VDP RAM
     ADA2 0C00 
1940 ADA4 0201  20        LI   R1,PTFRM0           * Address of last scrolled pattern frame
     ADA6 D9A2 
1941 ADA8 C0A0  34        MOV  @STLNUM,R2          * Number of patterns of 8 bytes
     ADAA B88C 
1942 ADAC 06A0  32        BL   @VM8BW              * Call copying routine
     ADAE B52C 
1943               *      Upload patterns part 3
1944 ADB0 0200  20        LI   R0,PTRNT2           * Destination address in VDP RAM
     ADB2 1000 
1945 ADB4 0201  20        LI   R1,PTFRM0           * Address of last scrolled pattern frame
     ADB6 D9A2 
1946 ADB8 C0A0  34        MOV  @STLNUM,R2          * Number of patterns of 8 bytes
     ADBA B88C 
1947 ADBC 06A0  32        BL   @VM8BW              * Call copying routine
     ADBE B52C 
1948 ADC0 0200  20        LI   R0,PTRNT2+>400      * Destination address in VDP RAM
     ADC2 1400 
1949 ADC4 0201  20        LI   R1,PTFRM0           * Address of last scrolled pattern frame
     ADC6 D9A2 
1950 ADC8 C0A0  34        MOV  @STLNUM,R2          * Number of patterns of 8 bytes
     ADCA B88C 
1951 ADCC 06A0  32        BL   @VM8BW              * Call copying routine
     ADCE B52C 
1952               *      Upload colors
1953 ADD0 0200  20        LI   R0,COLRTB           * Destination address in VDP RAM
     ADD2 2000 
1954 ADD4 0201  20        LI   R1,CLFRM0           * Address of last scrolled color frame
     ADD6 ECA2 
1955 ADD8 C0A0  34        MOV  @STLNUM,R2          * Number of pattern colors of 8 bytes
     ADDA B88C 
1956 ADDC 06A0  32        BL   @VM8BW              * Call copying routine
     ADDE B52C 
1957 ADE0 0200  20        LI   R0,COLRTB+>400      * Destination address in VDP RAM
     ADE2 2400 
1958 ADE4 0201  20        LI   R1,CLFRM0           * Address of last scrolled color frame
     ADE6 ECA2 
1959 ADE8 C0A0  34        MOV  @STLNUM,R2          * Number of pattern colors of 8 bytes
     ADEA B88C 
1960 ADEC 06A0  32        BL   @VM8BW              * Call copying routine
     ADEE B52C 
1961               *      Init name tables
1962 ADF0 C120  34        MOV  @SCRLY,R4           * Get initial scroll offset in pixels
     ADF2 8344 
1963 ADF4 0934  56        SRL  R4,3                * Convert to row offset
1965 ADF6 0203  20        LI   R3,MAPW
     ADF8 0018 
1966 ADFA 38C4  56        MPY  R4,R3
1973               *      Table 0
1974 ADFC 0200  20        LI   R0,NAMET0           * Destination address in VDP RAM
     ADFE 2800 
1975 AE00 0201  20        LI   R1,MAP-MAPW         * Base address of map data
     AE02 22E8 
1976 AE04 A044  18        A    R4,R1               * Add character offset
1977 AE06 04C5  14        CLR  R5
1978 AE08 06A0  32        BL   @DSPSCR             * Display screen
     AE0A AEA6 
1979               *      Table 1
1980 AE0C 0200  20        LI   R0,NAMET1           * Destination address in VDP RAM
     AE0E 2C00 
1981 AE10 0201  20        LI   R1,MAP-MAPW         * Base address of map data
     AE12 22E8 
1982 AE14 A044  18        A    R4,R1               * Add character offset
1983 AE16 0705  14        SETO  R5
1984 AE18 06A0  32        BL   @DSPSCR             * Display screen
     AE1A AEA6 
1985               *      Table 2
1986 AE1C 0200  20        LI   R0,NAMET2           * Destination address in VDP RAM
     AE1E 3000 
1987 AE20 0201  20        LI   R1,MAP              * Base address of map data
     AE22 2300 
1988 AE24 A044  18        A    R4,R1               * Add character offset
1989 AE26 04C5  14        CLR  R5
1990 AE28 06A0  32        BL   @DSPSCR             * Display screen
     AE2A AEA6 
1991               *      Table 3
1992 AE2C 0200  20        LI   R0,NAMET3           * Destination address in VDP RAM
     AE2E 3400 
1993 AE30 0201  20        LI   R1,MAP              * Base address of map data
     AE32 2300 
1994 AE34 A044  18        A    R4,R1               * Add character offset
1995 AE36 0705  14        SETO  R5
1996 AE38 06A0  32        BL   @DSPSCR             * Display screen
     AE3A AEA6 
1997               *      Return
1998 AE3C 064A  14        DECT R10                 * Pop return address off the stack
1999 AE3E C2DA  26        MOV  *R10,R11
2000 AE40 045B  20        B    *R11
2001               *// INISCR
2002               
2003               ***************************************************************************
2004               *
2005               * Look for switch and initialize update of meta tiles
2006               *
2007               * R1: Meta tile map offset of potential trigger
2008               *
2009 AE42 CE8B  34 SWITCH MOV  R11,*R10+           * Push return address onto the stack
2010               *      Calculate coordinates of offset
2011 AE44 0221  22        AI   R1,-MTMAP           * Subtract base address
     AE46 E000 
2012 AE48 04C0  14        CLR  R0
2013 AE4A 0203  20        LI   R3,MAPW/2
     AE4C 000C 
2014 AE4E 3C03  128        DIV  R3,R0               * R0 is Meta tile row number (y), R1 is column number (x)
2015 AE50 06C1  14        SWPB R1                  * Move column to MSB
2016 AE52 E040  18        SOC  R0,R1               * Combine with LSB in R1
2017               *      Look for coordinates in list
2018 AE54 0200  20        LI   R0,SWLIST           * List of switches
     AE56 D990 
2019 AE58 C0B0  30 SWITC1 MOV  *R0+,R2             * Get switch coordinates
2020 AE5A 130F  14        JEQ  SWITC3              * Zero terminates list
2021 AE5C 8081  18        C    R1,R2               * Check if coordinates match position
2022 AE5E 160A  14        JNE  SWITC2
2023               *      Found switch, record the address of tile list
2024 AE60 C830  50        MOV  *R0+,@MTSWTL        * Record which tile number to use
     AE62 8376 
2025 AE64 C810  46        MOV  *R0,@MTSWPT         * Record address of tiles
     AE66 8374 
2026 AE68 0700  14        SETO R0
2027 AE6A 0200  20        LI   R0,CONNEC
     AE6C 208B 
2028 AE6E 06A0  32        BL   @SPEAK              * Say something
     AE70 B75A 
2029 AE72 1004  14        JMP  SWITC4
2030 AE74 0220  22 SWITC2 AI   R0,4
     AE76 0004 
2031 AE78 10EF  14        JMP  SWITC1
2032 AE7A 04C0  14 SWITC3 CLR  R0
2033               *      Return
2034 AE7C 064A  14 SWITC4 DECT R10                 * Pop return address off the stack
2035 AE7E C2DA  26        MOV  *R10,R11
2036 AE80 045B  20        B    *R11
2037               *// SWITCH
2038               
2039               ***************************************************************************
2040               *
2041               * Update switched meta tiles
2042               *
2043 AE82 CE8B  34 UPDSMT MOV  R11,*R10+           * Push return address onto the stack
2048 AE84 C020  34        MOV  @MTSWPT,R0          * Get pointer to meta tile list
     AE86 8374 
2049 AE88 130B  14        JEQ  UPDSM2              * Return if not set
2050 AE8A C050  26        MOV  *R0,R1              * Get meta tile coordinates
2051 AE8C 1307  14        JEQ  UPDSM1              * Zero terminates list
2052 AE8E C020  34        MOV  @MTSWTL,R0          * Get tile to use
     AE90 8376 
2053 AE92 06A0  32        BL   @SETMTP
     AE94 AEFE 
2054 AE96 05E0  34        INCT @MTSWPT
     AE98 8374 
2055 AE9A 1002  14        JMP  UPDSM2
2056 AE9C 04E0  34 UPDSM1 CLR  @MTSWPT
     AE9E 8374 
2057               *      Return
2058 AEA0 064A  14 UPDSM2 DECT R10                 * Pop return address off the stack
2059 AEA2 C2DA  26        MOV  *R10,R11
2060 AEA4 045B  20        B    *R11
2061               *// SWITCH
2062               
2063               ***************************************************************************
2064               *
2065               * Display screen
2066               *
2067               * R0: Destination
2068               * R1: Source
2069               * R5: High character flag
2070               *
2071 AEA6 CE8B  34 DSPSCR MOV  R11,*R10+           * Push return address onto the stack
2072 AEA8 0206  20        LI   R6,VIEWH            * Rows
     AEAA 0018 
2073 AEAC C1C0  18 DSPSC1 MOV  R0,R7
2074 AEAE 0202  20        LI   R2,VIEWW/8          * Columns / 8
     AEB0 0003 
2075 AEB2 0745  18        ABS  R5
2076 AEB4 1603  14        JNE  DSPSC2
2077 AEB6 06A0  32        BL   @VM8BW
     AEB8 B52C 
2078 AEBA 1002  14        JMP  DSPSC3
2079 AEBC 06A0  32 DSPSC2 BL   @VM8BHW
     AEBE B540 
2080 AEC0 C007  18 DSPSC3 MOV  R7,R0
2081 AEC2 0220  22        AI   R0,SCRNW            * Next screen row
     AEC4 0020 
2082 AEC6 0221  22        AI   R1,MAPW-VIEWW
     AEC8 0000 
2083 AECA 0606  14        DEC  R6
2084 AECC 16EF  14        JNE  DSPSC1
2085               *      Return
2086 AECE 064A  14        DECT R10                 * Pop return address off the stack
2087 AED0 C2DA  26        MOV  *R10,R11
2088 AED2 045B  20        B    *R11
2089               *// DSPSCR
2090               
2091               ***************************************************************************
2092               *
2093               * Get the meta tile at the specified screen position
2094               *
2095               * R0: x position (pixels)
2096               * R1: y position (pixels)
2097               *
2098               * On return R0 contains the meta tile number and R1 the map address.
2099               *
2100 AED4 CE8B  34 GETMT  MOV  R11,*R10+           * Push return address onto the stack
2101 AED6 A060  34        A    @SCRLY,R1           * Add scroll offset to y
     AED8 8344 
2102 AEDA 0221  22        AI   R1,Y_DIFF           * Adjustment
     AEDC 0003 
2104 AEDE 0941  56        SRL  R1,4                * Divide by 16 to find row number
2105 AEE0 0202  20        LI   R2,MAPW/2
     AEE2 000C 
2106 AEE4 3842  56        MPY  R2,R1               * Multiply to MAPW to find row offset
2107 AEE6 C042  18        MOV  R2,R1
2111 AEE8 0930  56        SRL  R0,3                * Offset into row (characters)
2115 AEEA 0910  56        SRL  R0,1                * Offset in meta tiles
2116 AEEC A040  18        A    R0,R1               * Map offset
2117 AEEE 0221  22        AI   R1,MTMAP            * Add base address
     AEF0 2000 
2118 AEF2 04C0  14        CLR  R0
2119 AEF4 D811  46        MOVB *R1,@R0LB           * Get meta tile
     AEF6 8301 
2120               *      Return
2121 AEF8 064A  14        DECT R10                 * Pop return address off the stack
2122 AEFA C2DA  26        MOV  *R10,R11
2123 AEFC 045B  20        B    *R11
2124               *// GETMT
2125               
2126               ***************************************************************************
2127               *
2128               * Set meta tile at specified map coordinates
2129               *
2130               * R0: Meta tile number to set
2131               * R1: Map coordinates x,y in MSB,LSB
2132               *
2133 AEFE CE8B  34 SETMTP MOV  R11,*R10+           * Push return address onto the stack
2134 AF00 C0C1  18        MOV  R1,R3               * Save x
2135 AF02 0241  22        ANDI R1,>00FF            * y
     AF04 00FF 
2136 AF06 0202  20        LI   R2,MAPW/2           * Map width in meta tiles
     AF08 000C 
2137 AF0A 3842  56        MPY  R2,R1               * y * w in R2
2138 AF0C 0983  56        SRL  R3,8                * x
2139 AF0E A083  18        A    R3,R2               * x + y * w
2140 AF10 C042  18        MOV  R2,R1               * Map offset
2141 AF12 0221  22        AI   R1,MTMAP            * Add base address
     AF14 2000 
2142 AF16 06A0  32        BL   @SETMT
     AF18 AF20 
2143               *      Return
2144 AF1A 064A  14        DECT R10                 * Pop return address off the stack
2145 AF1C C2DA  26        MOV  *R10,R11
2146 AF1E 045B  20        B    *R11
2147               *// SETMTP
2148               
2149               ***************************************************************************
2150               *
2151               * Set the meta tile at the specified address
2152               *
2153               * R0: Meta tile number to set
2154               * R1: Meta tile map address
2155               *
2156               * On return MTMAP and MAP has been updated
2157               *
2158      0000     NW     EQU  0
2159      0001     NE     EQU  1
2160      0002     SW     EQU  2
2161      0003     SE     EQU  3
2162               
2163 AF20 CE8B  34 SETMT  MOV  R11,*R10+           * Push return address onto the stack
2164               *      Update meta tile map
2165 AF22 D460  46        MOVB @R0LB,*R1
     AF24 8301 
2166               *      Get meta tile numbers from map
2167 AF26 04C3  14        CLR  R3
2168 AF28 D0E1  34        MOVB @-MAPW/2(R1),R3     * Meta tile number above
     AF2A FFF4 
2169 AF2C 06C3  14        SWPB R3
2170 AF2E C100  18        MOV  R0,R4               * Meta tile number middle
2171 AF30 04C5  14        CLR  R5
2172 AF32 D161  34        MOVB @MAPW/2(R1),R5      * Meta tile number below
     AF34 000C 
2173 AF36 06C5  14        SWPB R5
2174               *      Get pointers to tile numbers
2175 AF38 0A23  56        SLA  R3,2                * Multiply by 4 (4 tiles per meta tile)
2176 AF3A 0223  22        AI   R3,MTILES           * Add base of meta tile definitions list
     AF3C B892 
2177 AF3E 0A24  56        SLA  R4,2                * Multiply by 4
2178 AF40 0224  22        AI   R4,MTILES           * Add base of meta tile definitions list
     AF42 B892 
2179 AF44 0A25  56        SLA  R5,2                * Multiply by 4
2180 AF46 0225  22        AI   R5,MTILES           * Add base of meta tile definitions list
     AF48 B892 
2181               *      Destination address in MAP
2182 AF4A 0221  22        AI   R1,-MTMAP           * Offset into meta tile map
     AF4C E000 
2184 AF4E 04C6  14        CLR  R6
2185 AF50 C1C1  18        MOV  R1,R7               * Offset into meta tile map
2186 AF52 0208  20        LI   R8,MAPW/2
     AF54 000C 
2187 AF56 3D88  128        DIV  R8,R6               * R6 is Meta tile row number, R7 is column number
2188 AF58 C247  18        MOV  R7,R9               * Save the column
2189 AF5A 3988  56        MPY  R8,R6               * Meta tile offset at start of row in R7
2190 AF5C 0A27  56        SLA  R7,2                * Character offset at start of row
2191 AF5E C187  18        MOV  R7,R6
2192 AF60 0A19  56        SLA  R9,1                * Multiply column by 2 to get character offset
2193 AF62 A189  18        A    R9,R6               * Add to row offset to get offset into MAP
2202 AF64 0226  22        AI   R6,MAP-MAPW         * Add base address, one row up
     AF66 22E8 
2203               *      Destination address/offset in VDP RAM
2204 AF68 C1C6  18        MOV  R6,R7
2205 AF6A 0227  22        AI   R7,-MAP             * Back to offset
     AF6C DD00 
2206 AF6E C020  34        MOV  @SCRLY,R0           * Scroll offset
     AF70 8344 
2207 AF72 0930  56        SRL  R0,3                * Scroll offset in rows
2209 AF74 3820  72        MPY  @M_MAPW,R0          * Scroll offset in map characters in R1
     AF76 8336 
2210 AF78 C207  18        MOV  R7,R8
2211 AF7A 6201  18        S    R1,R8               * Offset from top of screen *in map characters*
2212 AF7C 1118  14        JLT  SETMT6
2213 AF7E 04C7  14        CLR  R7
2214 AF80 3DE0  144        DIV  @M_MAPW,R7          * R7 has row, R8 has column *** NOTE: doesn't work if R8 was negative
     AF82 8336 
2215 AF84 0A57  56        SLA  R7,5                * Multiply by screen width
2216 AF86 A1C8  18        A    R8,R7               * Add column
2222 AF88 C207  18        MOV  R7,R8               * Make a copy for visible buffer
2223 AF8A 0227  22        AI   R7,SCRNW            * Off-screen buffer is scrolled one row
     AF8C 0020 
2227 AF8E 0227  22        AI   R7,NAMET0           * Add offset to name table buffer
     AF90 2800 
2231 AF92 C808  38        MOV  R8,@MTOFFS          * Save for later
     AF94 835C 
2232 AF96 0228  22        AI   R8,NAMET2           * Visible buffers
     AF98 3000 
2233 AF9A C020  34        MOV  @SCRLY,R0
     AF9C 8344 
2234 AF9E 2020  38        COC  @EIGHT,R0           * Check which buffers to use
     AFA0 8332 
2235 AFA2 130B  14        JEQ  SETMT1
2236 AFA4 0227  22        AI   R7,NAMET2-NAMET0    * Use second set of buffers in frames 0-7
     AFA6 0800 
2237 AFA8 0228  22        AI   R8,NAMET0-NAMET2
     AFAA F800 
2238 AFAC 1006  14        JMP  SETMT1
2239               *      Negative offset from top
2240 AFAE 0720  34 SETMT6 SETO @MTOFFS
     AFB0 835C 
2241 AFB2 0207  20        LI   R7,>8000
     AFB4 8000 
2242 AFB6 0208  20        LI   R8,>8000
     AFB8 8000 
2243               **
2244               *      Lookup scroll tile and write to MAP (top-left)
2245 AFBA D823  54 SETMT1 MOVB @SW(R3),@R0LB
     AFBC 0002 
     AFBE 8301 
2246 AFC0 D024  34        MOVB @NW(R4),R0
     AFC2 0000 
2247 AFC4 06A0  32        BL   @FINDST
     AFC6 B0BA 
2248 AFC8 DD81  32        MOVB R1,*R6+
2249               *      Write to VDP off-screen buffer
2250 AFCA 06A0  32        BL   @SETMT2
     AFCC B068 
2251               *      Write to VDP visible buffer
2252 AFCE 06A0  32        BL   @SETMT3
     AFD0 B090 
2253               *      Lookup scroll tile and write to MAP (top-right)
2254 AFD2 D823  54        MOVB @SE(R3),@R0LB
     AFD4 0003 
     AFD6 8301 
2255 AFD8 D024  34        MOVB @NE(R4),R0
     AFDA 0001 
2256 AFDC 06A0  32        BL   @FINDST
     AFDE B0BA 
2257 AFE0 DD81  32        MOVB R1,*R6+
2258               *      Write to VDP off-screen buffer
2259 AFE2 06A0  32        BL   @SETMT2
     AFE4 B068 
2260               *      Write to VDP visible buffer
2261 AFE6 06A0  32        BL   @SETMT3
     AFE8 B090 
2262               *      Next row
2263 AFEA 0226  22        AI   R6,MAPW-2           * Next row
     AFEC 0016 
2264 AFEE 0227  22        AI   R7,30
     AFF0 001E 
2265 AFF2 0228  22        AI   R8,30
     AFF4 001E 
2266               *      Lookup scroll tile and write to MAP (middle-left)
2267 AFF6 D824  54        MOVB @NW(R4),@R0LB
     AFF8 0000 
     AFFA 8301 
2268 AFFC D024  34        MOVB @SW(R4),R0
     AFFE 0002 
2269 B000 06A0  32        BL   @FINDST
     B002 B0BA 
2270 B004 DD81  32        MOVB R1,*R6+
2271               *      Write to VDP off-screen buffer
2272 B006 06A0  32        BL   @SETMT2
     B008 B068 
2273               *      Write to VDP visible buffer
2274 B00A 06A0  32        BL   @SETMT3
     B00C B090 
2275               *      Lookup scroll tile and write to MAP (middle-right)
2276 B00E D824  54        MOVB @NE(R4),@R0LB
     B010 0001 
     B012 8301 
2277 B014 D024  34        MOVB @SE(R4),R0
     B016 0003 
2278 B018 06A0  32        BL   @FINDST
     B01A B0BA 
2279 B01C DD81  32        MOVB R1,*R6+
2280               *      Write to VDP off-screen buffer
2281 B01E 06A0  32        BL   @SETMT2
     B020 B068 
2282               *      Write to VDP visible buffer
2283 B022 06A0  32        BL   @SETMT3
     B024 B090 
2284               *      Next row
2285 B026 0226  22        AI   R6,MAPW-2           * Next row
     B028 0016 
2286 B02A 0227  22        AI   R7,30
     B02C 001E 
2287 B02E 0228  22        AI   R8,30
     B030 001E 
2288               *      Lookup scroll tile and write to MAP (bottom-left)
2289 B032 D824  54        MOVB @SW(R4),@R0LB
     B034 0002 
     B036 8301 
2290 B038 D025  34        MOVB @NW(R5),R0
     B03A 0000 
2291 B03C 06A0  32        BL   @FINDST
     B03E B0BA 
2292 B040 DD81  32        MOVB R1,*R6+
2293               *      Write to VDP off-screen buffer
2294 B042 06A0  32        BL   @SETMT2
     B044 B068 
2295               *      Write to VDP visible buffer
2296 B046 06A0  32        BL   @SETMT3
     B048 B090 
2297               *      Lookup scroll tile and write to MAP (bottom-right)
2298 B04A D824  54        MOVB @SE(R4),@R0LB
     B04C 0003 
     B04E 8301 
2299 B050 D025  34        MOVB @NE(R5),R0
     B052 0001 
2300 B054 06A0  32        BL   @FINDST
     B056 B0BA 
2301 B058 DD81  32        MOVB R1,*R6+
2302               *      Write to VDP off-screen buffer
2303 B05A 06A0  32        BL   @SETMT2
     B05C B068 
2304               *      Write to VDP visible buffer
2305 B05E 06A0  32        BL   @SETMT3
     B060 B090 
2306               *      Return
2307 B062 064A  14        DECT R10                 * Pop return address off the stack
2308 B064 C2DA  26        MOV  *R10,R11
2309 B066 045B  20        B    *R11
2310               *      Write to VDP off-screen buffer (address in R7, byte in R1)
2311 B068 CE8B  34 SETMT2 MOV  R11,*R10+           * Push return address onto the stack
2312 B06A 21E0  38        COC  @W300H,R7           * Check of out of screen
     B06C B0B8 
2313 B06E 130C  14        JEQ  SETMT4
2314 B070 C007  18        MOV  R7,R0
2315 B072 110A  14        JLT  SETMT4
2316 B074 0241  22        ANDI R1,>7FFF            * Clear msb
     B076 7FFF 
2317 B078 06A0  32        BL   @VSBW
     B07A B5F8 
2318 B07C 0220  22        AI   R0,NAMET1-NAMET0    * Next table buffer
     B07E 0400 
2319 B080 0261  22        ORI  R1,>8000            * Set msb
     B082 8000 
2320 B084 06A0  32        BL   @VSBW
     B086 B5F8 
2321 B088 0587  14 SETMT4 INC  R7
2322               *      Return
2323 B08A 064A  14        DECT R10                 * Pop return address off the stack
2324 B08C C2DA  26        MOV  *R10,R11
2325 B08E 045B  20        B    *R11
2326               *      Write to VDP visible buffer (address in R8, byte in R1)
2327 B090 CE8B  34 SETMT3 MOV  R11,*R10+           * Push return address onto the stack
2328 B092 2220  38        COC  @W300H,R8           * Check of out of screen
     B094 B0B8 
2329 B096 130C  14        JEQ  SETMT5
2330 B098 C008  18        MOV  R8,R0
2331 B09A 110A  14        JLT  SETMT5
2332 B09C 0241  22        ANDI R1,>7FFF            * Clear msb
     B09E 7FFF 
2333 B0A0 06A0  32        BL   @VSBW
     B0A2 B5F8 
2334 B0A4 0220  22        AI   R0,NAMET1-NAMET0    * Next table buffer
     B0A6 0400 
2335 B0A8 0261  22        ORI  R1,>8000            * Set msb
     B0AA 8000 
2336 B0AC 06A0  32        BL   @VSBW
     B0AE B5F8 
2337 B0B0 0588  14 SETMT5 INC  R8
2338               *      Return
2339 B0B2 064A  14        DECT R10                 * Pop return address off the stack
2340 B0B4 C2DA  26        MOV  *R10,R11
2341 B0B6 045B  20        B    *R11
2342 B0B8 0300     W300H  DATA >0300
2343               *// SETMT
2344               
2345               ***************************************************************************
2346               *
2347               * Find scroll tile
2348               *
2349               * R0: From/to tile numbers to look up
2350               *
2351               * On return R1 MSB contains the scroll tile number, or -1 if not found
2352               *
2353 B0BA 0201  20 FINDST LI   R1,STILES           * Address of scroll tile definition list
     B0BC D806 
2354 B0BE C0A0  34        MOV  @STLNUM,R2          * Number of scroll tiles
     B0C0 B88C 
2355 B0C2 8C40  34 FINDS1 C    R0,*R1+             * Check list entry
2356 B0C4 1304  14        JEQ  FINDS2              * Found
2357 B0C6 0602  14        DEC  R2
2358 B0C8 16FC  14        JNE  FINDS1
2359               *      Not found
2360 B0CA 0701  14        SETO R1
2361 B0CC 1004  14        JMP  FINDS3
2362               *      Found
2363 B0CE 0221  22 FINDS2 AI   R1,-STILES-2        * Offset into list
     B0D0 27F8 
2364 B0D2 0911  56        SRL  R1,1                * Index in list
2365 B0D4 06C1  14        SWPB R1
2366               *      Return
2367 B0D6 045B  20 FINDS3 B    *R11
2368               *// FINDST
2369               
2370               ***************************************************************************
2371               *
2372               * Intialize sparkle
2373               *
2374 B0D8 CE8B  34 ISPARK MOV  R11,*R10+           * Push return address onto the stack
2375               *      Find a sprite to use
2376 B0DA 0201  20        LI   R1,SPRATT+ASPARK    * Attribute
     B0DC B85C 
2377 B0DE 0202  20        LI   R2,NSPARK           * Counter
     B0E0 0003 
2378 B0E2 9460  46 ISPAR1 CB   @BYTEC0,*R1         * Check if parked outside screen
     B0E4 8334 
2379 B0E6 1305  14        JEQ  ISPAR2
2380 B0E8 0221  22        AI   R1,4                * Next sprite
     B0EA 0004 
2381 B0EC 0602  14        DEC  R2
2382 B0EE 16F9  14        JNE  ISPAR1
2383 B0F0 100F  14        JMP  ISPAR3
2384               *      Found sprite
2385 B0F2 C020  34 ISPAR2 MOV  @MTOFFS,R0          * Get screen offset
     B0F4 835C 
2386 B0F6 110C  14        JLT  ISPAR3
2387 B0F8 C0C0  18        MOV  R0,R3
2388 B0FA 0953  56        SRL  R3,5                * Rows
2389 B0FC 0A33  56        SLA  R3,3                * y
2390 B0FE 06C3  14        SWPB R3
2391 B100 0240  22        ANDI R0,>001F            * Columns
     B102 001F 
2392 B104 0A30  56        SLA  R0,3                * x
2393 B106 E003  18        SOC  R3,R0               * Combine y and x
2394 B108 CC40  34        MOV  R0,*R1+
2395 B10A 0200  20        LI   R0,PSPARK*256+10    * Pattern + color yellow
     B10C 300A 
2396 B10E C440  30        MOV  R0,*R1
2397               *      Return
2398 B110 064A  14 ISPAR3 DECT R10                 * Pop return address off the stack
2399 B112 C2DA  26        MOV  *R10,R11
2400 B114 045B  20        B    *R11
2401               *// ISPARK
2402               
2403               ***************************************************************************
2404               *
2405               * Handle question mark tile
2406               *
2407               * R1: meta tile address
2408               *
2409               * Specials triggered by question mark
2410               * - Bonus points
2411               * - Restore energy
2412               * - Extra life
2413               * - Double jump (time limited condition)
2414               * - Immunity (time limited condition)
2415               * - Confusion / inverse movement (time limited condition)
2416               *
2417 B116 CE8B  34 QUESTM MOV  R11,*R10+           * Push return address onto the stack
2418 B118 C801  38        MOV  R1,@QSTMPA          * Save map address
     B11A B236 
2419 B11C 0200  20        LI   R0,MTTILE           * Change to tile
     B11E 0000 
2420 B120 06A0  32        BL   @SETMT              * Set the meta tile
     B122 AF20 
2421 B124 06A0  32        BL   @ISPARK             * Init sparkle
     B126 B0D8 
2422 B128 C060  34        MOV  @QSTMPA,R1          * Restore map address
     B12A B236 
2423               *      JMP  QUEST6              * Test specific condition
2424 B12C 06A0  32        BL   @SWITCH             * Check if tile is switching other tiles
     B12E AE42 
2425 B130 C000  18        MOV  R0,R0               * A non-zero return value
2426 B132 167E  14        JNE  QUEST9              * means that it was a trigger
2427               *      Handle other specials
2428 B134 06A0  32        BL   @RAND               * Call random routine
     B136 B6EC 
2429 B138 0280  22        CI   R0,>2000
     B13A 2000 
2430 B13C 1A1F  14        JL   QUEST1              * Double jump [>0000 - >2000[
2431 B13E 0280  22        CI   R0,>4000
     B140 4000 
2432 B142 1A67  14        JL   QUEST6              * Double jump [>2000 - >4000[
2433 B144 0280  22        CI   R0,>8000
     B146 8000 
2434 B148 1A28  14        JL   QUEST2              * Immunity [>4000 - >8000[
2435 B14A 0280  22        CI   R0,>9000
     B14C 9000 
2436 B14E 1A34  14        JL   QUEST3              * Confusion [>8000 - >9000[
2437 B150 0280  22        CI   R0,>B000
     B152 B000 
2438 B154 1A40  14        JL   QUEST4              * Restore energy [>9000 - >B000[
2439 B156 0280  22        CI   R0,>C000
     B158 C000 
2440 B15A 1A4B  14        JL   QUEST5              * Extra life [>B000 - >C000[
2441               *      Bonus points
2442 B15C 0200  20        LI   R0,1000
     B15E 03E8 
2443 B160 06A0  32        BL   @ADDSCO             * Add score [>C000 - >FFFF]
     B162 B37C 
2444 B164 C020  34        MOV  @PGIFT,R0
     B166 837C 
2445 B168 1663  14        JNE  QUEST9
2446 B16A 0200  20        LI   R0,PBONUS*256+6
     B16C C406 
2447 B16E C800  38        MOV  R0,@PGIFT
     B170 837C 
2448 B172 0200  20        LI   R0,POINT
     B174 50EC 
2449 B176 06A0  32        BL   @SPEAK              * Say something
     B178 B75A 
2450 B17A 105A  14        JMP  QUEST9
2451               *      Double jump
2452 B17C 0201  20 QUEST1 LI   R1,512
     B17E 0200 
2453 B180 C801  38        MOV  R1,@CNDCNT
     B182 837A 
2454 B184 0201  20        LI   R1,CN_DJMP
     B186 0001 
2455 B188 C801  38        MOV  R1,@COND
     B18A 8378 
2456 B18C 06A0  32        BL   @SETCLR
     B18E B238 
2457 B190 0200  20        LI   R0,LONG
     B192 40D3 
2458 B194 06A0  32        BL   @SPEAK              * Say something
     B196 B75A 
2459 B198 104B  14        JMP  QUEST9
2460               *      Immunity
2461 B19A 0201  20 QUEST2 LI   R1,512
     B19C 0200 
2462 B19E C801  38        MOV  R1,@CNDCNT
     B1A0 837A 
2463 B1A2 0201  20        LI   R1,CN_IMMU
     B1A4 0002 
2464 B1A6 C801  38        MOV  R1,@COND
     B1A8 8378 
2465 B1AA 06A0  32        BL   @SETCLR
     B1AC B238 
2466 B1AE 0200  20        LI   R0,FINE
     B1B0 2B1E 
2467 B1B2 06A0  32        BL   @SPEAK              * Say something
     B1B4 B75A 
2468 B1B6 103C  14        JMP  QUEST9
2469               *      Confusion
2470 B1B8 0201  20 QUEST3 LI   R1,512
     B1BA 0200 
2471 B1BC C801  38        MOV  R1,@CNDCNT
     B1BE 837A 
2472 B1C0 0201  20        LI   R1,CN_CONF
     B1C2 0003 
2473 B1C4 C801  38        MOV  R1,@COND
     B1C6 8378 
2474 B1C8 06A0  32        BL   @SETCLR
     B1CA B238 
2475 B1CC 0200  20        LI   R0,UHOH
     B1CE 71F4 
2476 B1D0 06A0  32        BL   @SPEAK              * Say something
     B1D2 B75A 
2477 B1D4 102D  14        JMP  QUEST9
2478               *      Restore energy
2479 B1D6 06A0  32 QUEST4 BL   @RSTNRG
     B1D8 B28A 
2480 B1DA C020  34        MOV  @PGIFT,R0
     B1DC 837C 
2481 B1DE 1628  14        JNE  QUEST9
2482 B1E0 0200  20        LI   R0,PNRG*256+12
     B1E2 C80C 
2483 B1E4 C800  38        MOV  R0,@PGIFT
     B1E6 837C 
2484 B1E8 0200  20        LI   R0,TOP
     B1EA 6F8D 
2485 B1EC 06A0  32        BL   @SPEAK              * Say something
     B1EE B75A 
2486 B1F0 101F  14        JMP  QUEST9
2487               *      Extra ball
2488 B1F2 05A0  34 QUEST5 INC  @LIVES
     B1F4 8366 
2489 B1F6 06A0  32        BL   @DSPLVS
     B1F8 B2B8 
2490 B1FA C020  34        MOV  @PGIFT,R0
     B1FC 837C 
2491 B1FE 1618  14        JNE  QUEST9
2492 B200 0200  20        LI   R0,PXBALL*256+4
     B202 C004 
2493 B204 C800  38        MOV  R0,@PGIFT
     B206 837C 
2494 B208 0200  20        LI   R0,MORE
     B20A 4642 
2495 B20C 06A0  32        BL   @SPEAK              * Say something
     B20E B75A 
2496 B210 100F  14        JMP  QUEST9
2497               *      Speed
2498 B212 0201  20 QUEST6 LI   R1,512
     B214 0200 
2499 B216 C801  38        MOV  R1,@CNDCNT
     B218 837A 
2500 B21A 0201  20        LI   R1,CN_SPED
     B21C 0004 
2501 B21E C801  38        MOV  R1,@COND
     B220 8378 
2502 B222 06A0  32        BL   @SETCLR
     B224 B238 
2503 B226 0200  20        LI   R0,DOUBLE
     B228 2599 
2504 B22A 06A0  32        BL   @SPEAK              * Say something
     B22C B75A 
2505 B22E 1000  14        JMP  QUEST9
2506               *      Return
2507 B230 064A  14 QUEST9 DECT R10                 * Pop return address off the stack
2508 B232 C2DA  26        MOV  *R10,R11
2509 B234 045B  20        B    *R11
2510 B236 0000     QSTMPA DATA >0000
2511               *// QUESTM
2512               
2513               ***************************************************************************
2514               *
2515               * Set ball color
2516               *
2517               * R1: Contains color to set
2518               *
2519               * 0 = White
2520               * 1 = Green
2521               * 2 = Blue
2522               * 3 = Red
2523               * 4 = Yellow
2524               *
2525 B238 0A11  56 SETCLR SLA  R1,1
2526 B23A D821  54        MOVB @BCLRS(R1),@SPRATT+3
     B23C B248 
     B23E B837 
2527 B240 D821  54        MOVB @BCLRS+1(R1),@SPRATT+7
     B242 B249 
     B244 B83B 
2528 B246 045B  20        B    *R11
2529 B248 0F0E     BCLRS  DATA >0F0E,>030C,>0504,>0906,>0F0A
     B24A 030C 
     B24C 0504 
     B24E 0906 
     B250 0F0A 
2530               *// SETCLR
2531               
2532               *********************************************************************
2533               *
2534               * Decrement energy
2535               *
2536               * R1 contains the number of units to subtract
2537               *
2538 B252 CE8B  34 DECNRG MOV  R11,*R10+           * Push return address onto the stack
2539 B254 C0A0  34        MOV  @ENERGY,R2
     B256 8364 
2540 B258 1315  14        JEQ  DECNR2
2541 B25A 0200  20        LI   R0,CHNRG*8+PTRNT1+32
     B25C 0FF0 
2542 B25E 6002  18        S    R2,R0
2543 B260 06A0  32        BL   @VWAD               * Set pattern VDP write address
     B262 B5E4 
2544 B264 6081  18        S    R1,R2
2545 B266 C802  38        MOV  R2,@ENERGY
     B268 8364 
2546 B26A 1507  14        JGT  DECNR0
2547 B26C C020  34        MOV  @DIED,R0            * Check if already died
     B26E 8370 
2548 B270 1604  14        JNE  DECNR0
2549 B272 05A0  34        INC  @DIED               * Set as died
     B274 8370 
2550 B276 04E0  34        CLR  @JMPFRM             * Clear counter
     B278 8348 
2551               *      Update patterns
2552 B27A C081  18 DECNR0 MOV  R1,R2
2553 B27C 04E0  34 DECNR1 CLR  @VDPWD
     B27E 8C00 
2554 B280 0602  14        DEC  R2
2555 B282 16FC  14        JNE  DECNR1
2556               *      Return
2557 B284 064A  14 DECNR2 DECT R10                 * Pop return address off the stack
2558 B286 C2DA  26        MOV  *R10,R11
2559 B288 045B  20        B    *R11
2560               *// DECNRG
2561               
2562               *********************************************************************
2563               *
2564               * Restore energy
2565               *
2566 B28A CE8B  34 RSTNRG MOV  R11,*R10+           * Push return address onto the stack
2567 B28C 0200  20        LI   R0,32
     B28E 0020 
2568 B290 C800  38        MOV  R0,@ENERGY
     B292 8364 
2569               *      Restore patterns
2570 B294 0200  20        LI   R0,CHNRG*8+PTRNT1
     B296 0FD0 
2571 B298 06A0  32        BL   @VWAD
     B29A B5E4 
2572 B29C 0200  20        LI   R0,VDPWD
     B29E 8C00 
2573 B2A0 0201  20        LI   R1,>007F            * Energy pattern
     B2A2 007F 
2574 B2A4 0202  20        LI   R2,32
     B2A6 0020 
2575 B2A8 D401  30 RSTNR1 MOVB R1,*R0
2576 B2AA D420  46        MOVB @R1LB,*R0
     B2AC 8303 
2577 B2AE 0642  14        DECT R2
2578 B2B0 16FB  14        JNE  RSTNR1
2579               *      Return
2580 B2B2 064A  14        DECT R10                 * Pop return address off the stack
2581 B2B4 C2DA  26        MOV  *R10,R11
2582 B2B6 045B  20        B    *R11
2583               *// RSTNRG
2584               
2585               *********************************************************************
2586               *
2587               * Display lives
2588               *
2589 B2B8 CE8B  34 DSPLVS MOV  R11,*R10+           * Push return address onto the stack
2590 B2BA C0E0  34        MOV  @LIVES,R3
     B2BC 8366 
2591 B2BE 1120  14        JLT  DSPLV5
2592 B2C0 0200  20        LI   R0,LVSBUF
     B2C2 B306 
2593 B2C4 0201  20        LI   R1,CHBALL*256
     B2C6 7E00 
2594 B2C8 C083  18        MOV  R3,R2
2595 B2CA 1308  14        JEQ  DSPLV4
2596 B2CC 0282  22        CI   R2,6
     B2CE 0006 
2597 B2D0 1202  14        JLE  DSPLV1
2598 B2D2 0202  20        LI   R2,6
     B2D4 0006 
2599 B2D6 DC01  32 DSPLV1 MOVB R1,*R0+
2600 B2D8 0602  14        DEC  R2
2601 B2DA 16FD  14        JNE  DSPLV1
2602 B2DC 0202  20 DSPLV4 LI   R2,6
     B2DE 0006 
2603 B2E0 6083  18        S    R3,R2
2604 B2E2 1306  14        JEQ  DSPLV3
2605 B2E4 1105  14        JLT  DSPLV3
2606 B2E6 0201  20        LI   R1,CHSPAC*256
     B2E8 FF00 
2607 B2EA DC01  32 DSPLV2 MOVB R1,*R0+
2608 B2EC 0602  14        DEC  R2
2609 B2EE 16FD  14        JNE  DSPLV2
2610               *      Display to VDP
2611 B2F0 0200  20 DSPLV3 LI   R0,5*32+25
     B2F2 00B9 
2612 B2F4 0201  20        LI   R1,LVSBUF
     B2F6 B306 
2613 B2F8 0202  20        LI   R2,6
     B2FA 0006 
2614 B2FC 06A0  32        BL   @DSPTXT
     B2FE B40E 
2615               *      Return
2616 B300 064A  14 DSPLV5 DECT R10                 * Pop return address off the stack
2617 B302 C2DA  26        MOV  *R10,R11
2618 B304 045B  20        B    *R11
2619 B306 7E7E     LVSBUF BYTE CHBALL,CHBALL,CHBALL,CHBALL,CHBALL,CHBALL
     B308 7E7E 
     B30A 7E7E 
2620               *// DSPLVS
2621               
2622               *********************************************************************
2623               *
2624               * Display time
2625               *
2626 B30C CE8B  34 DSPTME MOV  R11,*R10+           * Push return address onto the stack
2627 B30E 04C3  14        CLR  R3
2628 B310 0204  20        LI   R4,MAXFRM           * Max frames to complete level
     B312 1B58 
2629 B314 6120  34        S    @FRAME,R4
     B316 8338 
2630 B318 1117  14        JLT  DSPTM2
2631 B31A 0201  20        LI   R1,MAXFRM/48+1      * Divisor - max time / length of time scale (6*8)
     B31C 0092 
2632 B31E 3CC1  128        DIV  R1,R3               * Number of time scale units in R3
2633 B320 C043  18        MOV  R3,R1               * Get time scale units
2634 B322 0241  22        ANDI R1,7                * Mod 8
     B324 0007 
2635 B326 0200  20        LI   R0,8
     B328 0008 
2636 B32A 6001  18        S    R1,R0               * Shift = 8 - (time scale units Mod 8) [1-8]
2637 B32C 0201  20        LI   R1,>FF00            * Pattern byte
     B32E FF00 
2638 B330 0A01  56        SLA  R1,0                * Shift pattern byte
2639 B332 0933  56 DSPTM1 SRL  R3,3                * Number of full characters
2640 B334 0223  22        AI   R3,TMECHR           * Add list base address
     B336 B34E 
2641 B338 04C0  14        CLR  R0
2642 B33A D813  46        MOVB *R3,@R0LB           * Get character pattern number to update
     B33C 8301 
2643 B33E 0A30  56        SLA  R0,3                * Multiple by 8
2644 B340 0220  22        AI   R0,PTRNTB+7         * Add base address + 7 rows
     B342 0007 
2645 B344 06A0  32        BL   @VSBW
     B346 B5F8 
2646               *      Return
2647 B348 064A  14 DSPTM2 DECT R10                 * Pop return address off the stack
2648 B34A C2DA  26        MOV  *R10,R11
2649 B34C 045B  20        B    *R11
2650 B34E FDFC     TMECHR BYTE >FD,>FC,>FB,>FA,>FE,>77
     B350 FBFA 
     B352 FE77 
2651               *// DSPTME
2652               
2653               *********************************************************************
2654               *
2655               * Restore time
2656               *
2657 B354 CE8B  34 RSTTME MOV  R11,*R10+           * Push return address onto the stack
2658 B356 0201  20        LI   R1,>FF00            * Pattern row
     B358 FF00 
2659 B35A 0202  20        LI   R2,6
     B35C 0006 
2660 B35E 0203  20        LI   R3,TMECHR
     B360 B34E 
2661 B362 04C0  14 RSTTM1 CLR  R0
2662 B364 D833  48        MOVB *R3+,@R0LB          * Get character pattern number to restore
     B366 8301 
2663 B368 0A30  56        SLA  R0,3                * Multiple by 8
2664 B36A 0220  22        AI   R0,PTRNTB+7         * Add base address + 7 rows
     B36C 0007 
2665 B36E 06A0  32        BL   @VSBW               * Set byte
     B370 B5F8 
2666 B372 0602  14        DEC  R2
2667 B374 16F6  14        JNE  RSTTM1
2668               *      Return
2669 B376 064A  14        DECT R10                 * Pop return address off the stack
2670 B378 C2DA  26        MOV  *R10,R11
2671 B37A 045B  20        B    *R11
2672               *// RSTTME
2673               
2674               *********************************************************************
2675               *
2676               * Add score
2677               *
2678               * R0 contains the score to add
2679               *
2680 B37C CE8B  34 ADDSCO MOV  R11,*R10+           * Push return address onto the stack
2681 B37E A800  38        A    R0,@SCOREL
     B380 8362 
2682 B382 1702  14        JNC  ADDSC1
2683 B384 05A0  34        INC  @SCOREH
     B386 8360 
2684 B388 06A0  32 ADDSC1 BL   @DSPSCO
     B38A B392 
2685               *      Return
2686 B38C 064A  14        DECT R10                 * Pop return address off the stack
2687 B38E C2DA  26        MOV  *R10,R11
2688 B390 045B  20        B    *R11
2689               *// ADDSCO
2690               
2691               *********************************************************************
2692               *
2693               * Display score
2694               *
2695 B392 CE8B  34 DSPSCO MOV  R11,*R10+           * Push return address onto the stack
2696 B394 C020  34        MOV  @SCOREH,R0
     B396 8360 
2697 B398 C060  34        MOV  @SCOREL,R1
     B39A 8362 
2698 B39C 0202  20        LI   R2,6                * Counter
     B39E 0006 
2699 B3A0 0203  20        LI   R3,10               * Divisor
     B3A2 000A 
2700 B3A4 0204  20        LI   R4,NUMBUF+5         * Start backwards
     B3A6 B3D7 
2701               *      Digit loop
2702 B3A8 3C03  128 DSPNU1 DIV  R3,R0               * Divide to get digit as remainder in R1
2703 B3AA 0221  22        AI   R1,CHZERO           * Add ASCII code for zero
     B3AC 00F0 
2704 B3AE 06C1  14        SWPB R1                  * Swap to high byte
2705 B3B0 D501  30        MOVB R1,*R4              * Store digit in buffer
2706 B3B2 0604  14        DEC  R4                  * Next digit in buffer (working backwards)
2707 B3B4 C040  18        MOV  R0,R1
2708 B3B6 04C0  14        CLR  R0
2709 B3B8 0602  14        DEC  R2                  * Count down
2710 B3BA 16F6  14        JNE  DSPNU1              * Digit loop
2711               *      Display to VDP
2712 B3BC 0200  20        LI   R0,18*32+25
     B3BE 0259 
2713 B3C0 0201  20        LI   R1,NUMBUF
     B3C2 B3D2 
2714 B3C4 0202  20        LI   R2,6
     B3C6 0006 
2715 B3C8 06A0  32        BL   @DSPTXT
     B3CA B40E 
2716               *      Return
2717 B3CC 064A  14        DECT R10                 * Pop return address off the stack
2718 B3CE C2DA  26        MOV  *R10,R11
2719 B3D0 045B  20        B    *R11
2720 B3D2 F0F0     NUMBUF BYTE CHZERO,CHZERO,CHZERO,CHZERO,CHZERO,CHZERO
     B3D4 F0F0 
     B3D6 F0F0 
2721               *// DSPSCO
2722               
2723               ***************************************************************************
2724               *
2725               * Display level
2726               *
2727 B3D8 CE8B  34 DSPLVL MOV  R11,*R10+           * Push return address onto the stack
2728 B3DA 0204  20        LI   R4,NUMBUF+4
     B3DC B3D6 
2729 B3DE 0201  20        LI   R1,CHZERO*256+CHZERO
     B3E0 F0F0 
2730 B3E2 C501  30        MOV  R1,*R4
2731 B3E4 04C0  14        CLR  R0
2732 B3E6 C060  34        MOV  @LEVEL,R1
     B3E8 8368 
2733 B3EA 0203  20        LI   R3,10
     B3EC 000A 
2734 B3EE 3C03  128        DIV  R3,R0
2735 B3F0 BD20  48        AB   @R0LB,*R4+          * Display first digit
     B3F2 8301 
2736 B3F4 BD20  48        AB   @R1LB,*R4+          * Display last digit
     B3F6 8303 
2737               *      Display to VDP
2738 B3F8 0200  20        LI   R0,22*32+27
     B3FA 02DB 
2739 B3FC 0201  20        LI   R1,NUMBUF+4
     B3FE B3D6 
2740 B400 0202  20        LI   R2,2
     B402 0002 
2741 B404 06A0  32        BL   @DSPTXT
     B406 B40E 
2742               *      Return
2743 B408 064A  14        DECT R10                 * Pop return address off the stack
2744 B40A C2DA  26        MOV  *R10,R11
2745 B40C 045B  20        B    *R11
2746               *// DSPLVL
2747               
2748               *********************************************************************
2749               *
2750               * Display text to all name table buffers
2751               *
2752               * R0: Screen offset (characters) of upper left corner
2753               * R1: Source address
2754               * R2: Length
2755               *
2756               * Modifies R0-R5
2757               *
2758 B40E CE8B  34 DSPTXT MOV  R11,*R10+           * Push return address onto the stack
2759 B410 C0C0  18        MOV  R0,R3
2760 B412 C101  18        MOV  R1,R4
2761 B414 C142  18        MOV  R2,R5
2762 B416 0220  22        AI   R0,NAMET0
     B418 2800 
2763 B41A 06A0  32        BL   @VMBW
     B41C B624 
2764 B41E C003  18        MOV  R3,R0
2765 B420 C044  18        MOV  R4,R1
2766 B422 C085  18        MOV  R5,R2
2767 B424 0220  22        AI   R0,NAMET1
     B426 2C00 
2768 B428 06A0  32        BL   @VMBW
     B42A B624 
2769 B42C C003  18        MOV  R3,R0
2770 B42E C044  18        MOV  R4,R1
2771 B430 C085  18        MOV  R5,R2
2772 B432 0220  22        AI   R0,NAMET2
     B434 3000 
2773 B436 06A0  32        BL   @VMBW
     B438 B624 
2774 B43A C003  18        MOV  R3,R0
2775 B43C C044  18        MOV  R4,R1
2776 B43E C085  18        MOV  R5,R2
2777 B440 0220  22        AI   R0,NAMET3
     B442 3400 
2778 B444 06A0  32        BL   @VMBW
     B446 B624 
2779               *      Return
2780 B448 064A  14        DECT R10                 * Pop return address off the stack
2781 B44A C2DA  26        MOV  *R10,R11
2782 B44C 045B  20        B    *R11
2783               *// DSPTXT
2784               
2785               ***************************************************************************
2786               *
2787               * Display right side panel
2788               *
2789 B44E CE8B  34 DSPPNL MOV  R11,*R10+           * Push return address onto the stack
2790               *      Copy some characters back that has been overwritten by the logo
2791 B450 0200  20        LI   R0,112*8+PTRNT1
     B452 0B80 
2792 B454 0201  20        LI   R1,FIXPAT
     B456 2B00 
2793 B458 0202  20        LI   R2,16*8
     B45A 0080 
2794 B45C 06A0  32        BL   @VCOPY
     B45E B670 
2795 B460 0200  20        LI   R0,112*8+COLRTB
     B462 2380 
2796 B464 0201  20        LI   R1,FIXCOL
     B466 2B80 
2797 B468 0202  20        LI   R2,16*8
     B46A 0080 
2798 B46C 06A0  32        BL   @VCOPY
     B46E B670 
2799               *      Display to all four buffers
2800 B470 0200  20        LI   R0,NAMET0+VIEWW
     B472 2818 
2801 B474 06A0  32        BL   @DSPPN0
     B476 B496 
2802 B478 0200  20        LI   R0,NAMET1+VIEWW
     B47A 2C18 
2803 B47C 06A0  32        BL   @DSPPN0
     B47E B496 
2804 B480 0200  20        LI   R0,NAMET2+VIEWW
     B482 3018 
2805 B484 06A0  32        BL   @DSPPN0
     B486 B496 
2806 B488 0200  20        LI   R0,NAMET3+VIEWW
     B48A 3418 
2807 B48C 06A0  32        BL   @DSPPN0
     B48E B496 
2808               *      Return
2809 B490 064A  14        DECT R10                 * Pop return address off the stack
2810 B492 C2DA  26        MOV  *R10,R11
2811 B494 045B  20        B    *R11
2812               *      Display to one name table
2813 B496 CE8B  34 DSPPN0 MOV  R11,*R10+           * Push return address onto the stack
2814 B498 C1C0  18        MOV  R0,R7
2815 B49A 0208  20        LI   R8,FIXMAP
     B49C 2F00 
2816 B49E 0209  20        LI   R9,PANELH           * Rows
     B4A0 0018 
2817 B4A2 C007  18 DSPPN1 MOV  R7,R0
2818 B4A4 C048  18        MOV  R8,R1
2819 B4A6 0202  20        LI   R2,PANELW           * Columns
     B4A8 0008 
2820 B4AA 06A0  32        BL   @VCOPY
     B4AC B670 
2821 B4AE 0227  22        AI   R7,SCRNW            * Next screen row
     B4B0 0020 
2822 B4B2 0228  22        AI   R8,PANELW           * Next map row
     B4B4 0008 
2823 B4B6 0609  14        DEC  R9
2824 B4B8 16F4  14        JNE  DSPPN1
2825               *      Return
2826 B4BA 064A  14        DECT R10                 * Pop return address off the stack
2827 B4BC C2DA  26        MOV  *R10,R11
2828 B4BE 045B  20        B    *R11
2829               *// DSPPNL
2830               
2831               ***************************************************************************
2832               *
2833               * Display logo
2834               *
2835 B4C0 CE8B  34 DSPLGO MOV  R11,*R10+           * Push return address onto the stack
2836               *      Screen off
2837 B4C2 0200  20        LI   R0,>01A2
     B4C4 01A2 
2838 B4C6 06A0  32        BL   @VWTR
     B4C8 B660 
2839               *      Disable sprites
2840 B4CA 0200  20        LI   R0,SPRATB
     B4CC 1F80 
2841 B4CE 0201  20        LI   R1,>D000
     B4D0 D000 
2842 B4D2 06A0  32        BL   @VSBW
     B4D4 B5F8 
2843               *      Clear name table
2844 B4D6 0200  20        LI   R0,NAMET0
     B4D8 2800 
2845 B4DA 0201  20        LI   R1,CHSPAC*256
     B4DC FF00 
2846 B4DE 0202  20        LI   R2,768
     B4E0 0300 
2847 B4E2 06A0  32        BL   @VSMW
     B4E4 B60C 
2848               *      * Patterns
2849 B4E6 0200  20        LI   R0,PTRNT1
     B4E8 0800 
2850 B4EA 0201  20        LI   R1,LGPAT
     B4EC 3700 
2851 B4EE 0202  20        LI   R2,NLOGOP*8
     B4F0 0480 
2852 B4F2 06A0  32        BL   @VCOPY
     B4F4 B670 
2853               *      * Colors
2854 B4F6 0200  20        LI   R0,COLRTB
     B4F8 2000 
2855 B4FA 0201  20        LI   R1,LGCOL
     B4FC 3B80 
2856 B4FE 0202  20        LI   R2,NLOGOP*8
     B500 0480 
2857 B502 06A0  32        BL   @VCOPY
     B504 B670 
2858               *      * Map
2859 B506 0200  20        LI   R0,NAMET0+256
     B508 2900 
2860 B50A 0201  20        LI   R1,LGMAP
     B50C 3300 
2861 B50E 0202  20        LI   R2,256
     B510 0100 
2862 B512 06A0  32        BL   @VCOPY
     B514 B670 
2863               *      Set name table
2864 B516 0200  20        LI   R0,>020A
     B518 020A 
2865 B51A 06A0  32        BL   @VWTR
     B51C B660 
2866               *      Screen on
2867 B51E 0200  20        LI   R0,>01E2
     B520 01E2 
2868 B522 06A0  32        BL   @VWTR
     B524 B660 
2869               *      Return
2870 B526 064A  14        DECT R10                 * Pop return address off the stack
2871 B528 C2DA  26        MOV  *R10,R11
2872 B52A 045B  20        B    *R11
2873               *// DSPLGO
2874               
2875               ***************************************************************************
2876               *
2877               * VDP Multiple 8 Byte Write
2878               *
2879               * The inner loop has been moved into scratch pad
2880               * memory for a performance boost of about 10%.
2881               *
2882               * R0: Starting write address in VDP RAM
2883               * R1: Starting read address in CPU RAM
2884               * R2: Number of groups of 8 bytes to send to the VDP RAM
2885               *
2886               * R0 is modified, R1 is next read address, R2 is zero
2887               *
2888 B52C CE8B  34 VM8BW  MOV  R11,*R10+           * Push return address onto the stack
2889 B52E 06A0  32        BL   @VWAD               * Setup write address
     B530 B5E4 
2890 B532 0200  20        LI   R0,VDPWD            * Load VDP write data address into register
     B534 8C00 
2891 B536 06A0  32        BL   @VCPY
     B538 837E 
2892               *      Return
2893 B53A 064A  14        DECT R10                 * Pop return address off the stack
2894 B53C C2DA  26        MOV  *R10,R11
2895 B53E 045B  20        B    *R11
2896               *// VM8BW
2897               
2898               ***************************************************************************
2899               *
2900               * VDP Multiple 8 Byte High Write
2901               *
2902               * Like VM8BW but sets the most significant bit of each byte written.
2903               * Note: only works correctly for even read addresses.
2904               *
2905               * R0: Starting write address in VDP RAM
2906               * R1: Starting read address in CPU RAM (must be even)
2907               * R2: Number of groups of 8 bytes to send to the VDP RAM
2908               *
2909               * R0 is modified, R1 is next read address, R2 is zero, R3 is modified
2910               *
2911 B540 CE8B  34 VM8BHW MOV  R11,*R10+           * Push return address onto the stack
2912 B542 06A0  32        BL   @VWAD               * Setup write address
     B544 B5E4 
2913 B546 0203  20        LI   R3,VDPWD            * Load VDP write data address into register
     B548 8C00 
2914 B54A 020F  20        LI   R15,>8000
     B54C 8000 
2916 B54E D031  28        MOVB *R1+,R0
2917 B550 E00F  18        SOC  R15,R0
2918 B552 D4C0  30        MOVB R0,*R3
2919 B554 D031  28        MOVB *R1+,R0
2920 B556 E00F  18        SOC  R15,R0
2921 B558 D4C0  30        MOVB R0,*R3
2922 B55A D031  28        MOVB *R1+,R0
2923 B55C E00F  18        SOC  R15,R0
2924 B55E D4C0  30        MOVB R0,*R3
2925 B560 D031  28        MOVB *R1+,R0
2926 B562 E00F  18        SOC  R15,R0
2927 B564 D4C0  30        MOVB R0,*R3
2928 B566 D031  28        MOVB *R1+,R0
2929 B568 E00F  18        SOC  R15,R0
2930 B56A D4C0  30        MOVB R0,*R3
2931 B56C D031  28        MOVB *R1+,R0
2932 B56E E00F  18        SOC  R15,R0
2933 B570 D4C0  30        MOVB R0,*R3
2934 B572 D031  28        MOVB *R1+,R0
2935 B574 E00F  18        SOC  R15,R0
2936 B576 D4C0  30        MOVB R0,*R3
2937 B578 D031  28        MOVB *R1+,R0
2938 B57A E00F  18        SOC  R15,R0
2939 B57C D4C0  30        MOVB R0,*R3
2958 B57E 0602  14        DEC  R2                  * Group counter
2959 B580 16E6  14        JNE  VM8BH1              * Loop if not done
2960               *      Return
2961 B582 064A  14        DECT R10                 * Pop return address off the stack
2962 B584 C2DA  26        MOV  *R10,R11
2963 B586 045B  20        B    *R11
2964               *// VM8BHW
2965               
2966               ***************************************************************************
2967               *
2968               * Fast CPU to VDP copy, replaces VMBW
2969               *
2970               * R0: Destination address
2971               * R1: Source address
2972               * R2: Number of bytes to copy
2973               *
2974               * R0-R3 are modified
2975               *
2976 B588 CE8B  34 VDPCP0 MOV  R11,*R10+           * Push return address onto the stack
2977 B58A 1009  14        JMP  VDPCP1
2978 B58C CE8B  34 VDPCP  MOV  R11,*R10+           * Push return address onto the stack
2979 B58E 06C0  14        SWPB R0
2980 B590 D800  38        MOVB R0,@VDPWA           * Send low byte of VDP RAM write address
     B592 8C02 
2981 B594 06C0  14        SWPB R0
2982 B596 0260  22        ORI  R0,>4000            * Set the two MSbits to 01 for write
     B598 4000 
2983 B59A D800  38        MOVB R0,@VDPWA           * Send high byte of VDP RAM write address
     B59C 8C02 
2984 B59E 0200  20 VDPCP1 LI   R0,VDPWD
     B5A0 8C00 
2985 B5A2 C0C2  18        MOV  R2,R3
2986 B5A4 0932  56        SRL  R2,3                * Number of groups of 8
2987 B5A6 1305  14        JEQ  VDPCP2
2988 B5A8 06A0  32        BL   @VCPY
     B5AA 837E 
2989 B5AC 0243  22        ANDI R3,>0007            * Isolate number of remaining bytes
     B5AE 0007 
2990 B5B0 1303  14        JEQ  VDPCP3
2991 B5B2 D431  40 VDPCP2 MOVB *R1+,*R0
2992 B5B4 0603  14        DEC  R3
2993 B5B6 16FD  14        JNE  VDPCP2
2994               *      Return
2995 B5B8 064A  14 VDPCP3 DECT R10                 * Pop return address off the stack
2996 B5BA C2DA  26        MOV  *R10,R11
2997 B5BC 045B  20        B    *R11
2998               *// VDPCP
2999               
3000               ***************************************************************************
3001               *
3002               * VDP copy unrolled loop
3003               *
3004 B5BE D431  40 VCPY8  MOVB *R1+,*R0
3005 B5C0 D431  40        MOVB *R1+,*R0
3006 B5C2 D431  40        MOVB *R1+,*R0
3007 B5C4 D431  40        MOVB *R1+,*R0
3008 B5C6 D431  40        MOVB *R1+,*R0
3009 B5C8 D431  40        MOVB *R1+,*R0
3010 B5CA D431  40        MOVB *R1+,*R0
3011 B5CC D431  40        MOVB *R1+,*R0
3012 B5CE 0602  14        DEC  R2
3013 B5D0 16F6  14        JNE  VCPY8
3014 B5D2 045B  20        B    *R11
3015               VCPY8E
3016               *// VCPY8
3017               
3018               ***************************************************************************
3019               *
3020               * VDP Set Read Address
3021               *
3022               * R0   Address to set VDP address counter to
3023               *
3024 B5D4 D820  54 VRAD   MOVB @R0LB,@VDPWA        * Send low byte of VDP RAM write address
     B5D6 8301 
     B5D8 8C02 
3025 B5DA 0240  22        ANDI R0,>3FFF            * Make sure the two MSbits are 00 for read
     B5DC 3FFF 
3026 B5DE D800  38        MOVB R0,@VDPWA           * Send high byte of VDP RAM write address
     B5E0 8C02 
3027 B5E2 045B  20        B    *R11
3028               *// VRAD
3029               
3030               ***************************************************************************
3031               *
3032               * VDP Set Write Address
3033               *
3034               * R0   Address to set VDP address counter to
3035               *
3036 B5E4 D820  54 VWAD   MOVB @R0LB,@VDPWA        * Send low byte of VDP RAM write address
     B5E6 8301 
     B5E8 8C02 
3037 B5EA 0260  22        ORI  R0,>4000            * Set the two MSbits to 01 for write
     B5EC 4000 
3038 B5EE D800  38        MOVB R0,@VDPWA           * Send high byte of VDP RAM write address
     B5F0 8C02 
3039 B5F2 0240  22        ANDI R0,>3FFF            * Restore R0 top two MSbits
     B5F4 3FFF 
3040 B5F6 045B  20        B    *R11
3041               *// VWAD / VRAD
3042               
3043               ***************************************************************************
3044               *
3045               * VDP Single Byte Write
3046               *
3047               * R0   Write address in VDP RAM
3048               * R1   MSB of R1 sent to VDP RAM
3049               *
3050               * R0 is modified, but can be restored with: ANDI R0,>3FFF
3051               *
3052 B5F8 D820  54 VSBW   MOVB @R0LB,@VDPWA        * Send low byte of VDP RAM write address
     B5FA 8301 
     B5FC 8C02 
3053 B5FE 0260  22        ORI  R0,>4000            * Set read/write bits 14 and 15 to write (01)
     B600 4000 
3054 B602 D800  38        MOVB R0,@VDPWA           * Send high byte of VDP RAM write address
     B604 8C02 
3055 B606 D801  38        MOVB R1,@VDPWD           * Write byte to VDP RAM
     B608 8C00 
3056 B60A 045B  20        B    *R11
3057               *// VSBW
3058               
3059               ***************************************************************************
3060               *
3061               * VDP Single Byte Multiple Write
3062               *
3063               * R0   Starting write address in VDP RAM
3064               * R1   MSB of R1 sent to VDP RAM
3065               * R2   Number of times to write the MSB byte of R1 to VDP RAM
3066               *
3067               * R0 is modified, but can be restored with: ANDI R0,>3FFF
3068               *
3069 B60C D820  54 VSMW   MOVB @R0LB,@VDPWA        * Send low byte of VDP RAM write address
     B60E 8301 
     B610 8C02 
3070 B612 0260  22        ORI  R0,>4000            * Set read/write bits 14 and 15 to write (01)
     B614 4000 
3071 B616 D800  38        MOVB R0,@VDPWA           * Send high byte of VDP RAM write address
     B618 8C02 
3072 B61A D801  38 VSMWLP MOVB R1,@VDPWD           * Write byte to VDP RAM
     B61C 8C00 
3073 B61E 0602  14        DEC  R2                  * Byte counter
3074 B620 16FC  14        JNE  VSMWLP              * Check if done
3075 B622 045B  20        B    *R11
3076               *// VSMW
3077               
3078               ***************************************************************************
3079               *
3080               * VDP Multiple Byte Write
3081               *
3082               * R0   Starting write address in VDP RAM
3083               * R1   Starting read address in CPU RAM
3084               * R2   Number of bytes to send to the VDP RAM
3085               *
3086               * R0 is modified, but can be restored with: ANDI R0,>3FFF
3087               *
3088 B624 D820  54 VMBW   MOVB @R0LB,@VDPWA        * Send low byte of VDP RAM write address
     B626 8301 
     B628 8C02 
3089 B62A 0260  22        ORI  R0,>4000            * Set read/write bits 14 and 15 to write (01)
     B62C 4000 
3090 B62E D800  38        MOVB R0,@VDPWA           * Send high byte of VDP RAM write address
     B630 8C02 
3091 B632 D831  48 VMBWLP MOVB *R1+,@VDPWD         * Write byte to VDP RAM
     B634 8C00 
3092 B636 0602  14        DEC  R2                  * Byte counter
3093 B638 16FC  14        JNE  VMBWLP              * Check if done
3094 B63A 045B  20        B    *R11
3095               *// VMBW
3096               
3097               ***************************************************************************
3098               *
3099               * VDP Single Byte Read
3100               *
3101               * R0   Read address in VDP RAM
3102               * R1   MSB of R1 set to byte from VDP RAM
3103               *
3104 B63C D820  54 VSBR   MOVB @R0LB,@VDPWA        * Send low byte of VDP RAM write address
     B63E 8301 
     B640 8C02 
3105 B642 D800  38        MOVB R0,@VDPWA           * Send high byte of VDP RAM write address
     B644 8C02 
3106 B646 D060  34        MOVB @VDPRD,R1           * Read byte from VDP RAM
     B648 8800 
3107 B64A 045B  20        B    *R11
3108               *// VSBR
3109               
3110               ***************************************************************************
3111               *
3112               * VDP Multiple Byte Read
3113               *
3114               * R0   Starting read address in VDP RAM
3115               * R1   Starting write address in CPU RAM
3116               * R2   Number of bytes to read from VDP RAM
3117               *
3118 B64C D820  54 VMBR   MOVB @R0LB,@VDPWA        * Send low byte of VDP RAM write address
     B64E 8301 
     B650 8C02 
3119 B652 D800  38        MOVB R0,@VDPWA           * Send high byte of VDP RAM write address
     B654 8C02 
3120 B656 DC60  48 VMBRLP MOVB @VDPRD,*R1+         * Read byte from VDP RAM
     B658 8800 
3121 B65A 0602  14        DEC  R2                  * Byte counter
3122 B65C 16FC  14        JNE  VMBRLP              * Check if finished
3123 B65E 045B  20        B    *R11
3124               *// VMBR
3125               
3126               ***************************************************************************
3127               *
3128               * VDP Write To Register
3129               *
3130               * R0 MSB    VDP register to write to
3131               * R0 LSB    Value to write
3132               *
3133 B660 D820  54 VWTR   MOVB @R0LB,@VDPWA        * Send low byte (value) to write to VDP register
     B662 8301 
     B664 8C02 
3134 B666 0260  22        ORI  R0,>8000            * Set up a VDP register write operation (10)
     B668 8000 
3135 B66A D800  38        MOVB R0,@VDPWA           * Send high byte (address) of VDP register
     B66C 8C02 
3136 B66E 045B  20        B    *R11
3137               *// VWTR
3138               
3139               ***************************************************************************
3140               *
3141               * VDP RAM copy
3142               *
3143               * R0: Destination address (word aligned)
3144               * R1: Source address (word aligned)
3145               * R2: Number of bytes to copy
3146               *
3147      0008     VCPSZE EQU  8                   * Buffer size
3148               *
3149 B670 CE8B  34 VCOPY  MOV  R11,*R10+           * Push return address onto the stack
3150 B672 C0C0  18        MOV  R0,R3               * Destionation
3151 B674 C101  18        MOV  R1,R4               * Source
3152 B676 C142  18        MOV  R2,R5               * Count
3153 B678 0206  20        LI   R6,VCPSZE
     B67A 0008 
3154 B67C C004  18 VCOPY1 MOV  R4,R0
3155 B67E 0201  20        LI   R1,VCPBUF
     B680 B6A2 
3156 B682 C086  18        MOV  R6,R2
3157 B684 06A0  32        BL   @VMBR
     B686 B64C 
3158 B688 C003  18        MOV  R3,R0
3159 B68A 0201  20        LI   R1,VCPBUF
     B68C B6A2 
3160 B68E C086  18        MOV  R6,R2
3161 B690 06A0  32        BL   @VMBW
     B692 B624 
3162 B694 A0C6  18        A    R6,R3
3163 B696 A106  18        A    R6,R4
3164 B698 6146  18        S    R6,R5
3165 B69A 15F0  14        JGT  VCOPY1
3166               *      Return
3167 B69C 064A  14        DECT R10                 * Pop return address off the stack
3168 B69E C2DA  26        MOV  *R10,R11
3169 B6A0 045B  20        B    *R11
3170 B6A2 ....     VCPBUF BSS  VCPSZE
3171               *// COPY
3172               
3173               ***************************************************************************
3174               *
3175               * CPU RAM copy
3176               *
3177               * R0: Destination address (word aligned)
3178               * R1: Source address (word aligned)
3179               * R2: Number of bytes to copy (multiple of 2)
3180               
3181 B6AA CC31  46 COPY   MOV  *R1+,*R0+
3182 B6AC 0642  14        DECT R2
3183 B6AE 16FD  14        JNE  COPY
3184               *      Return
3185 B6B0 045B  20        B    *R11
3186               *// COPY
3187               
3188               ***************************************************************************
3189               *
3190               * Wait for fire button
3191               *
3192               * R2: Number of frames to wait before returning, or 0 for never
3193               *
3194 B6B2 CE8B  34 WTFIRE MOV  R11,*R10+           * Push return address onto the stack
3195 B6B4 0200  20 WTFIR1 LI   R0,>0606            * Fire button
     B6B6 0606 
3196 B6B8 06A0  32        BL   @CHKKEY
     B6BA B6DC 
3197 B6BC 160C  14        JNE  WTFIR2
3198 B6BE 06A0  32        BL   @CKQUIT             * Check quit
     B6C0 AA52 
3199 B6C2 06A0  32        BL   @RAND               * Randomize
     B6C4 B6EC 
3200 B6C6 05A0  34        INC  @FRAME
     B6C8 8338 
3201 B6CA 06A0  32        BL   @VSYNC
     B6CC A42E 
3202 B6CE C082  18        MOV  R2,R2
3203 B6D0 13F1  14        JEQ  WTFIR1
3204 B6D2 0602  14        DEC  R2
3205 B6D4 16EF  14        JNE  WTFIR1
3206               *      Return
3207 B6D6 064A  14 WTFIR2 DECT R10                 * Pop return address off the stack
3208 B6D8 C2DA  26        MOV  *R10,R11
3209 B6DA 045B  20        B    *R11
3210               *// WTFIRE
3211               
3212               ***************************************************************************
3213               *
3214               * Check key
3215               *
3216               * R0: Column in MSB: >0000 - >0700, Row in LSB: >0006 - >0014
3217               *
3218               *       Column   0      1    2    3    4    5     6       7
3219               *     Row
3220               *     >0006      =      .    ,    M    N    /    Fire    Fire
3221               *     >0008    Space    L    K    J    H    ;    Left    Left
3222               *     >000A    Enter    O    I    U    Y    P    Right   Right
3223               *     >000C             9    8    7    6    0    Down    Down
3224               *     >000E    Fctn     2    3    4    5    1    Up      Up
3225               *     >0010    Shift    S    D    F    G    A
3226               *     >0012    Ctrl     W    E    R    T    Q
3227               *     >0014             X    C    V    B    Z
3228               *
3229               * On return NEQ means that the key is pressed
3230               *
3231 B6DC 020C  20 CHKKEY LI   R12,>0024           * CRU address of the column decoder
     B6DE 0024 
3232 B6E0 30C0  56        LDCR R0,3                * Select column
3233 B6E2 0240  22        ANDI R0,>00FF
     B6E4 00FF 
3234 B6E6 C300  18        MOV  R0,R12              * Select row
3235 B6E8 1F00  20        TB   0                   * Test key, EQ if not pressed
3236 B6EA 045B  20        B    *R11
3237               *// CHKKEY
3238               
3239               *********************************************************************
3240               *
3241               * Generate a pseudo random number
3242               *
3243               * On return R0 contains the number, which is also stored at @RANDNO
3244               *
3245               * R14 and R15 are modified
3246               *
3247 B6EC 020E  20 RAND   LI   R14,28643           * A prime number to multiply by
     B6EE 6FE3 
3248 B6F0 3BA0  72        MPY  @RANDNO,R14         * Multiply by last random number
     B6F2 833C 
3249 B6F4 022F  22        AI   R15,31873           * Add a prime number
     B6F6 7C81 
3250 B6F8 C020  34        MOV  @FRAME,R0           * Use the VSYNC tick to mix it up a little
     B6FA 8338 
3251 B6FC 0B0F  56        SRC  R15,0               * Mix up the number to break odd/even pattern
3252 B6FE C80F  38 RAND1  MOV  R15,@RANDNO         * Save this number for next time
     B700 833C 
3253 B702 C00F  18        MOV  R15,R0              * Copy as return value
3254 B704 045B  20        B    *R11
3255               *// RAND
3256               
3257               *********************************************************************************
3258               *
3259               * Play music
3260               *
3261 B706 CE8B  34 PLAYMU MOV  R11,*R10+           * Push return address onto the stack
3266 B708 06A0  32        BL   @stplay
     B70A BA74 
3267 B70C 02E0  18        LWPI WRKSP
     B70E 8300 
3268 B710 C020  34        MOV  @PLYRWS+14,R0       * Check if music is done
     B712 83EE 
3269 B714 1602  14        JNE  PLAYM1
3270               *      Restart music
3271 B716 06A0  32        BL   @INITMU
     B718 B720 
3272               *      Return
3273 B71A 064A  14 PLAYM1 DECT R10                 * Pop return address off the stack
3274 B71C C2DA  26        MOV  *R10,R11
3275 B71E 045B  20        B    *R11
3276               *// PLAYMU
3277               
3278               *********************************************************************************
3279               *
3280               * Initialize music
3281               *
3282 B720 CE8B  34 INITMU MOV  R11,*R10+           * Push return address onto the stack
3283 B722 0201  20        LI   R1,MUSIC
     B724 C970 
3284 B726 0202  20        LI   R2,0
     B728 0000 
3285 B72A 06A0  32        BL   @stinit
     B72C B9E8 
3286               *      Return
3287 B72E 064A  14        DECT R10                 * Pop return address off the stack
3288 B730 C2DA  26        MOV  *R10,R11
3289 B732 045B  20        B    *R11
3290               *// INITMU
3291               
3292               *********************************************************************
3293               *
3294               * Mute sound
3295               *
3296 B734 0200  20 MTESND LI   R0,MUTETB            * Mute all
     B736 B746 
3297 B738 0202  20        LI   R2,4
     B73A 0004 
3298 B73C D830  48 MTESN1 MOVB *R0+,@SOUND
     B73E 8400 
3299 B740 0602  14        DEC  R2
3300 B742 16FC  14        JNE  MTESN1
3301 B744 045B  20        B    *R11
3302 B746 9FBF     MUTETB BYTE >9F,>BF,>DF,>FF
     B748 DFFF 
3303               *// MTESND
3304               
3305               *********************************************************************
3306               *
3307               * Play sound
3308               *
3309               * R0: pointer to sound list row
3310               *
3311 B74A 04C2  14 PLYSND CLR  R2
3312 B74C D830  48        MOVB *R0+,@R2LB
     B74E 8305 
3313 B750 D830  48 PLYSN1 MOVB *R0+,@SOUND
     B752 8400 
3314 B754 0602  14        DEC  R2
3315 B756 16FC  14        JNE  PLYSN1
3316 B758 045B  20        B    *R11
3317               *// PLYSND
3318               
3319               *********************************************************************
3320               *
3321               * Speak a word from the resident vocabulary
3322               *
3323               * R0 points to the word to say.
3324               *
3325      40D3     LONG   EQU  >40D3               * Long jump
3326      50EC     POINT  EQU  >50EC               * Bonus points
3327      71F4     UHOH   EQU  >71F4               * Confusion
3328      30D6     GOOD   EQU  >30D6               *
3329      2B94     FINISH EQU  >2B94               * Level completed
3330      4642     MORE   EQU  >4642               * Extra life
3331      6F8D     TOP    EQU  >6F8D               * Energy
3332      7D58     YES    EQU  >7D58               *
3333      3C4F     NO     EQU  >3C4F               * Space
3334      208B     CONNEC EQU  >208B               * Switch
3335      2B1E     FINE   EQU  >2B1E               * Immunity
3336      2599     DOUBLE EQU  >2599               * Speed
3337      56B3     READY  EQU  >56B3
3338      1700     A1     EQU  >1700
3339      4B7D     OH     EQU  >4B7D
3340               *
3341 B75A 0202  20 SPEAK  LI	R2,4
     B75C 0004 
3342 B75E 0B40  56 SPEAK1 SRC	R0,4
3343 B760 C040  18 	   MOV	R0,R1
3344 B762 0B41  56 	   SRC	R1,4
3345 B764 0241  22 	   ANDI	R1,>0F00
     B766 0F00 
3346 B768 0261  22 	   ORI	R1,>4000
     B76A 4000 
3347 B76C D801  38 	   MOVB	R1,@SPCHWT
     B76E 9400 
3348 B770 0602  14 	   DEC	R2
3349 B772 16F5  14 	   JNE	SPEAK1
3350 B774 0200  20 	   LI	R0,>4000
     B776 4000 
3351 B778 D800  38 	   MOVB	R0,@SPCHWT
     B77A 9400 
3352 B77C 0200  20 	   LI	R0,>5000
     B77E 5000 
3353 B780 D800  38 	   MOVB	R0,@SPCHWT
     B782 9400 
3354 B784 045B  20 	   B	*R11
3355               *// SPEAK
3356               
3357               *********************************************************************************
3358               *
3359               * Change scroll tile colors
3360               *
3361               * R0 contains a pointer to the zero terminated list of from/to color bytes
3362               *
3363 B786 CE8B  34 CHGCLR MOV  R11,*R10+           * Push return address onto the stack
3364 B788 C000  18        MOV  R0,R0
3365 B78A 1311  14        JEQ  CHGCL9
3366 B78C C050  26 CHGCL1 MOV  *R0,R1              * Get from/to color bytes
3367 B78E D120  34        MOVB @R1LB,R4
     B790 8303 
3368 B792 130D  14        JEQ  CHGCL9              * Zero terminated
3369 B794 C0A0  34        MOV  @STLNUM,R2          * Number of scroll tiles
     B796 B88C 
3370 B798 0A62  56        SLA  R2,6                * Number of bytes to update (8 frames * 8 bytes/tile)
3371 B79A 0203  20        LI   R3,CLFRM0           * Pointer to color bytes
     B79C ECA2 
3372 B79E 9CC1  32 CHGCL2 CB   R1,*R3+
3373 B7A0 1602  14        JNE  CHGCL3
3374 B7A2 0603  14        DEC  R3
3375 B7A4 DCC4  32        MOVB R4,*R3+
3376 B7A6 0602  14 CHGCL3 DEC  R2
3377 B7A8 16FA  14        JNE  CHGCL2
3378 B7AA 05C0  14        INCT R0
3379 B7AC 10EF  14        JMP  CHGCL1
3380               *      Return
3381 B7AE 064A  14 CHGCL9 DECT R10                 * Pop return address off the stack
3382 B7B0 C2DA  26        MOV  *R10,R11
3383 B7B2 045B  20        B    *R11
3384               *// CHGCLR
3385               
3386               ***************************************************************************
3387               *
3388               *      Data
3389               *
3390 B7B4 BB8A     LEVELS DATA MTMAP1,EDLST1,SWLST1,0
     B7B6 BD0A 
     B7B8 BD3C 
     B7BA 0000 
3391 B7BC BD4E            DATA MTMAP2,EDLST2,SWLST2,0
     B7BE BECE 
     B7C0 BEF8 
     B7C2 0000 
3392 B7C4 BEFE            DATA MTMAP3,EDLST3,SWLST3,CLRCH1
     B7C6 C07E 
     B7C8 C0B0 
     B7CA B7F6 
3393 B7CC C0C2            DATA MTMAP4,EDLST4,SWLST4,CLRCH1
     B7CE C242 
     B7D0 C26C 
     B7D2 B7F6 
3394 B7D4 C272            DATA MTMAP5,EDLST5,SWLST5,0
     B7D6 C3F2 
     B7D8 C41C 
     B7DA 0000 
3395 B7DC C43E            DATA MTMAP6,EDLST6,SWLST6,0
     B7DE C5BE 
     B7E0 C600 
     B7E2 0000 
3396 B7E4 C61A            DATA MTMAP7,EDLST7,SWLST7,CLRCH1
     B7E6 C79A 
     B7E8 C7CC 
     B7EA B7F6 
3397 B7EC C7E8            DATA MTMAP8,EDLST8,SWLST8,0
     B7EE C968 
     B7F0 C96A 
     B7F2 0000 
3398 B7F4 0000            DATA 0
3399               
3400 B7F6 54DF     CLRCH1 BYTE >54,>DF,>96,>3C,>00,>00     * ,>F1,>F6,>E1,>E6
     B7F8 963C 
     B7FA 0000 
3401               
3402 B7FC 1010     JMPPAT BYTE PBALL2,PBALL2,PBALL1,PBALL1,PBALL1,PBALL1,PBALL0,PBALL0
     B7FE 0808 
     B800 0808 
     B802 0000 
3403 B804 0000            BYTE PBALL0,PBALL0,PBALL1,PBALL1,PBALL1,PBALL1,PBALL2,PBALL2
     B806 0808 
     B808 0808 
     B80A 1010 
3404 B80C 0101     JMPHGT BYTE 1,1,1,0,1,0,1,0,0,-1,0,-1,0,-1,-1,-1
     B80E 0100 
     B810 0100 
     B812 0100 
     B814 00FF 
     B816 00FF 
     B818 00FF 
     B81A FFFF 
3405               
3406 B81C 1014     DIEPAT BYTE PBALL2,PBALL2+4,PBALL3,PBALL3+4,PBALL4,PBALL4+4,PBALL5,PBALL5+4
     B81E 181C 
     B820 2024 
     B822 282C 
3407 B824 3C3C            BYTE PSPARK+12,PSPARK+12,PSPARK+8,PSPARK+8,PSPARK+4,PSPARK+4,PSPARK,PSPARK
     B826 3838 
     B828 3434 
     B82A 3030 
3408 B82C 3434            BYTE PSPARK+4,PSPARK+4,PSPARK+8,PSPARK+8,PSPARK+12,PSPARK+12,PEMPTY,PEMPTY
     B82E 3838 
     B830 3C3C 
     B832 FCFC 
3409               
3410               *      Sprite attributes
3411 B834 8060     SPRATT BYTE >80,>60,PBALL2,>0F      * Ball top layer
     B836 100F 
3412 B838 8060            BYTE >80,>60,PBALL2+4,>0E    * Ball bottom layer
     B83A 140E 
3413 B83C C000            BYTE >C0,>00,PENEMY,>0F      * Enemy 1 plane 1
     B83E 400F 
3414 B840 C000            BYTE >C0,>00,PENEMY+4,>01    * Enemy 1 plane 2
     B842 4401 
3415 B844 C000            BYTE >C0,>00,PENEMY,>0F      * Enemy 2 plane 1
     B846 400F 
3416 B848 C000            BYTE >C0,>00,PENEMY+4,>01    * Enemy 2 plane 2
     B84A 4401 
3417 B84C C000            BYTE >C0,>00,PENEMY,>0F      * Enemy 3 plane 1
     B84E 400F 
3418 B850 C000            BYTE >C0,>00,PENEMY+4,>01    * Enemy 3 plane 2
     B852 4401 
3419 B854 C000            BYTE >C0,>00,PENEMY,>0F      * Enemy 4 plane 1
     B856 400F 
3420 B858 C000            BYTE >C0,>00,PENEMY+4,>01    * Enemy 4 plane 2
     B85A 4401 
3421 B85C C000            BYTE >C0,>00,PSPARK,>0A      * Sparkle 1
     B85E 300A 
3422 B860 C000            BYTE >C0,>00,PSPARK,>0A      * Sparkle 2
     B862 300A 
3423 B864 C000            BYTE >C0,>00,PSPARK,>0A      * Sparkle 3
     B866 300A 
3424 B868 8060            BYTE >80,>60,PBALL2+4,>01    * Ball shadow
     B86A 1401 
3425               
3426               *     Press fire sprite attributes
3427 B86C 80C0     PRFATT BYTE >80,>C0,PPRF,>0F
     B86E CC0F 
3428 B870 80D0            BYTE >80,>D0,PPRF+4,>0F
     B872 D00F 
3429 B874 80E0            BYTE >80,>E0,PPRF+8,>0F
     B876 D40F 
3430 B878 D000            BYTE >D0,>00
3431               
3432               *     Game over sprite attributes
3433 B87A 5850     GMOATT BYTE >58,>50,PGMO,>0F
     B87C D80F 
3434 B87E 5860            BYTE >58,>60,PGMO+4,>0F
     B880 DC0F 
3435 B882 5951            BYTE >59,>51,PGMO,>01
     B884 D801 
3436 B886 5961            BYTE >59,>61,PGMO+4,>01
     B888 DC01 
3437 B88A D000            BYTE >D0,>00
3438               
3439               *      Scroll tile counts
3440 B88C 0000     STLNUM DATA >0000               * Actual number of scroll tiles
3441      004C     STLNU1 EQU  76                  * Max number of scroll tiles - determines allocated buffer sizes
3442 B88E 0000     STLNU2 DATA >0000               * 2/3 of STLNUM
3443 B890 0000     STLNU3 DATA >0000               * 1/3 of STLNUM
3444               
3445               
3446               ****************************************
3447               * Meta Tile definitions (NW, NE, SW, SE)
3448               ****************************************
3449               MTILES
3450 B892 0001     MTILE0 BYTE >00,>01,>08,>09
     B894 0809 
3451 B896 0203     MTILE1 BYTE >02,>03,>0A,>0B
     B898 0A0B 
3452 B89A 0405     MTILE2 BYTE >04,>05,>0C,>0D
     B89C 0C0D 
3453 B89E 0607     MTILE3 BYTE >06,>07,>0E,>0F
     B8A0 0E0F 
3454 B8A2 1011     MTILE4 BYTE >10,>11,>18,>19
     B8A4 1819 
3455 B8A6 1213     MTILE5 BYTE >12,>13,>1A,>1B
     B8A8 1A1B 
3456 B8AA 1415     MTILE6 BYTE >14,>15,>1C,>1D
     B8AC 1C1D 
3457 B8AE 1617     MTILE7 BYTE >16,>17,>1E,>1F
     B8B0 1E1F 
3458               
3459               ***************************************************************************
3460               *
3461               * Include data files
3462               *
3463                      COPY "tiplayer.a99"
**** **** ****     > tiplayer.a99
0001               * 60hz music-only player
0002               * 2014 by Tursi aka Mike Brent
0003               * Released to public domain, may be used freely
0004               * Asm994a version, may require additional work for Editor/Assembler
0005               
0006               * uses 124 bytes of RAM plus 32 bytes for a temporary workspace (156 total)
0007               * 608 bytes of code
0008               * cycle counting an average song gives a range of about 1000-10000 cycles per frame, with an
0009               * average of 2000 cycles. That's 333uS - 3333uS, average of 666uS. One scanline (out of 262)
0010               * is about 63.666uS, so the decompression takes from 5-52 scanlines, average of 10 scanlines.
0011               * That means about 2%-20% of the CPU, with an average of 4%, at 60Hz playback.
0012               
0013               * externally visible data (on return):
0014               * R7 (songwp+14) contains >FFFF if the song is still playing, and >0000 if it's done
0015               * R9-R10 (songwp+18-20) contains one byte for each voice's current volume
0016               * R12-R15 (songwp+24-30) contain the current frequency word (last channel is just a noise nibble)
0017               
0018               * R0 = return data, scratch       R8 = scratch
0019               * R1 = scratch                    R9 = user volume bytes 0-1
0020               * R2 = scratch                    R10= user volume bytes 2-3
0021               * R3 = stream base for fctn       R11= subroutine return
0022               * R4 = voice counter (0-3)        R12= voice 0 frequency
0023               * R5 = stream base pointer        R13= voice 1 frequency
0024               * R6 = time counter pointer       R14= voice 2 frequency
0025               * R7 = still playing flag         R15= noise type (byte)
0026               
0027               * this one ported to work with the gcc assembler,  and export data
0028               *	def stinit
0029               *	def ststop
0030               *	def stplay
0031               
0032               * these are just intended to be read from the map file so they can be used for timing
0033               *	def timingin
0034               *	def timingout
0035               
0036               * must point to a workspace that the player can corrupt at will,
0037               * however,  the memory is not needed between calls
0038               * C runtime uses >8300, and >8320 is used to store 0s for my own hack
0039      83E0     songwp equ PLYRWS                 * Rasmus: referred to my own equ
0040               
0041               * screen timeout register - we reset this every frame we run
0042               * we stop resetting it when the song ends
0043      83D6     scrnto equ >83D6
0044               
0045               *		dseg
0046               
0047               		even
0048               * pointers,  in order streampos,  streamref,  streamcnt, streambase, repeated 12 times (for decompression)
0049 B8B2 ....     strm	bss 96
0050               * time countdown for each of 4 channels (only need bytes, but using words for simplicity)
0051 B912 ....     tmcnt	bss 8
0052               * count of override for timestreams (only need bytes)
0053 B91A ....     tmocnt	bss 8
0054               * type of override for timestreams (only need bytes)
0055 B922 ....     tmovr	bss 8
0056               * pointer to the song data (needed for offset fixups)
0057 B92A ....     songad	bss 2
0058               * return address
0059 B92C ....     retad	bss 2
0060               
0061               *	pseg
0062               
0063               * get a compressed byte from a stream - stream data base in r3
0064               * note: assumes stream data is based at STRM
0065               * byte is return in r0 msb
0066               * uses r1, r2, may seto r7
0067               	even
0068               getbyte
0069 B92E C063  34 	mov @2(r3), r1				* test streamref
     B930 0002 
0070 B932 130C  14 	jeq getb1					* not set
0071 B934 0281  22 	ci r1,>ffff				* test for repeat count
     B936 FFFF 
0072 B938 1309  14 	jeq getb1					* not backref
0073 B93A D031  28 	movb *r1+, r0				* get back-referenced byte
0074 B93C C8C1  38 	mov r1, @2(r3)				* write new value back
     B93E 0002 
0075 B940 0623  34 	dec @4(r3)					* decrement counter
     B942 0004 
0076 B944 1602  14 	jne getb2					* not 0 yet
0077 B946 04E3  34 	clr @2(r3)					* out of bytes,  clear back reference ptr
     B948 0002 
0078               getb2
0079 B94A 045B  20 	b *r11						* and return
0080               
0081               getb1
0082 B94C C063  34 	mov @4(r3), r1				* test streamcnt
     B94E 0004 
0083 B950 130F  14 	jeq getb3					* out of bytes,  need to figure out the next set
0084               
0085 B952 0623  34 	dec @4(r3)					* count down
     B954 0004 
0086 B956 1306  14 	jeq getb1inc				* increment always if last byte
0087 B958 C063  34 	mov @2(r3), r1				* test streamref is 0
     B95A 0002 
0088 B95C 1303  14 	jeq getb1inc				* increment if not a ref (it must have been >ffff here)
0089               
0090               * get byte with no increment
0091 B95E C053  26 	mov *r3, r1					* get stream pointer
0092 B960 D011  26 	movb *r1, r0				* get byte from current run
0093 B962 045B  20 	b *r11						* and return
0094               
0095               getb1inc
0096               * get byte with increment
0097 B964 C053  26 	mov *r3, r1					* get stream pointer
0098 B966 D031  28 	movb *r1+, r0				* get byte from current run
0099 B968 C4C1  30 	mov r1, *r3					* write new value back
0100 B96A 045B  20 	b *r11						* and return
0101               
0102               nostream
0103 B96C D002  18 	movb r2,r0					* return (r2 is expected to be zero!)
0104 B96E 045B  20 	b *R11
0105               
0106               getb3
0107               * count is zero, need to get a new command
0108 B970 C053  26 	mov *r3, r1					* get pointer to stream
0109 B972 04C2  14 	clr r2						* prepare r2
0110 B974 D0B1  28 	movb *r1+, r2				* get new count byte
0111 B976 13FA  14 	jeq nostream				* was zero
0112 B978 1520  14 	jgt getb4					* if high bit is clear (no >80)
0113               
0114 B97A 20A0  38 	coc @dat40,r2				* check for 40 (indicates 2 byte reference)
     B97C BA64 
0115 B97E 130C  14 	jeq getb3double
0116               
0117               * get single byte back reference
0118 B980 0242  22 	andi r2, >3f00				* mask it
     B982 3F00 
0119 B984 06C2  14 	swpb r2						* store in the lsbyte
0120 B986 0602  14 	dec r2						* we are going to consume one byte below,  and we know it's at least 4
0121 B988 C8C2  38 	mov r2, @4(r3)				* write it to count
     B98A 0004 
0122 B98C 04C2  14 	clr r2						* prepare msb
0123 B98E D0B1  28 	movb *r1+, r2				* get backref pointer
0124 B990 06C2  14 	swpb r2						* put in correct order
0125 B992 A0A3  34 	a @6(r3),r2					* add stream base, r2 now has the correct address
     B994 0006 
0126 B996 100C  14 	jmp getb3fin
0127               
0128               getb3double
0129 B998 0242  22 	andi r2, >3f00				* mask it
     B99A 3F00 
0130 B99C 06C2  14 	swpb r2						* store in the lsbyte
0131 B99E 0602  14 	dec r2						* we are going to consume one byte below,  and we know it's at least 4
0132 B9A0 C8C2  38 	mov r2, @4(r3)				* write it back
     B9A2 0004 
0133 B9A4 D0B1  28 	movb *r1+, r2				* get backref pointer (can't use mov,  might be misaligned)
0134 B9A6 06C2  14 	swpb r2
0135 B9A8 D0B1  28 	movb *r1+, r2
0136 B9AA 06C2  14 	swpb r2						* get back into correct order
0137 B9AC A0A0  34 	a @songad, r2				* make into a pointer
     B9AE B92A 
0138               
0139               getb3fin
0140 B9B0 D032  28 	movb *r2+, r0				* get back-referenced byte
0141 B9B2 C8C2  38 	mov r2, @2(r3)				* and store back reference pointer
     B9B4 0002 
0142 B9B6 C4C1  30 	mov r1, *r3					* and save stream pointer
0143 B9B8 045B  20 	b *r11						* and return
0144               
0145               getb4
0146               * >80 is not set, check for just >40
0147 B9BA 20A0  38 	coc @dat40, r2
     B9BC BA64 
0148 B9BE 1309  14 	jeq getb5					* it's set, so go process that
0149               
0150               * neither bit is set, so it's just a plain run
0151 B9C0 06C2  14 	swpb r2						* fix byte order (assumes no corruption,  lsbyte is already zero)
0152 B9C2 D031  28 	movb *r1+, r0				* get byte from current run
0153 B9C4 0602  14 	dec r2						* count down - no need to test here
0154 B9C6 C8C2  38 	mov r2, @4(r3)				* save count
     B9C8 0004 
0155 B9CA C4C1  30 	mov r1, *r3					* save pointer
0156 B9CC 04E3  34 	clr @2(r3)					* make sure the streamref is zeroed
     B9CE 0002 
0157 B9D0 045B  20 	b *r11						* and return
0158               
0159               getb5
0160               * >40 is set - set up for a repeated character
0161 B9D2 0242  22 	andi r2, >3f00				* mask it
     B9D4 3F00 
0162 B9D6 06C2  14 	swpb r2						* put in the correct byte
0163 B9D8 0602  14 	dec r2						* count down the one we are going to take
0164 B9DA C8C2  38 	mov r2,@4(r3)				* save the result
     B9DC 0004 
0165 B9DE D011  26 	movb *r1, r0				* get the appropriate byte - note no increment!
0166 B9E0 C4C1  30 	mov r1,*r3					* save it (necessary because we incremented above)
0167 B9E2 0723  34 	seto @2(r3)					* set the reference to >ffff
     B9E4 0002 
0168 B9E6 045B  20 	b *r11						* and return
0169               
0170               
0171               * start a new tune,  with the pointer to the module in r1, and index of tune in r2 (usually 0)
0172               stinit
0173 B9E8 C801  38 	mov r1,@songwp		* save the address in our workspace's R0
     B9EA 83E0 
0174 B9EC C802  38 	mov r2,@songwp+6	* save the index in our workspace's R3
     B9EE 83E6 
0175 B9F0 02E0  18 	lwpi songwp
     B9F2 83E0 
0176 B9F4 0201  20 	li r1, 12
     B9F6 000C 
0177 B9F8 0202  20 	li r2, strm
     B9FA B8B2 
0178 B9FC C800  38 	mov r0, @songad		* save it for later
     B9FE B92A 
0179 BA00 C010  26 	mov *r0, r0			* point to the table of pointers
0180 BA02 0204  20 	li r4,24			* 24 bytes per table
     BA04 0018 
0181 BA06 3903  56 	mpy r3,r4			* get the offset to the requested stream table (into r4,r5)
0182 BA08 A005  18 	a r5,r0				* add it in
0183 BA0A A020  34 	a @songad, r0		* make a memory pointer
     BA0C B92A 
0184               sti1
0185 BA0E C4B0  42 	mov *r0+, *r2		* get stream offset
0186 BA10 A4A0  46 	a @songad, *r2		* make it a pointer - when all four voices point to zero,  the tune is over
     BA12 B92A 
0187 BA14 C892  46 	mov *r2,@6(r2)		* copy into stream base pointer
     BA16 0006 
0188 BA18 05C2  14 	inct r2
0189 BA1A 04F2  30 	clr *r2+			* clear reference
0190 BA1C 04F2  30 	clr *r2+			* clear count
0191 BA1E 05C2  14 	inct r2				* skip stream base pointer
0192 BA20 0601  14 	dec r1
0193 BA22 16F5  14 	jne sti1
0194               
0195 BA24 04F2  30 	clr *r2+			* clear four time counters
0196 BA26 04F2  30 	clr *r2+
0197 BA28 04F2  30 	clr *r2+
0198 BA2A 04F2  30 	clr *r2+
0199               
0200 BA2C 04F2  30 	clr *r2+			* clear four timer override counters
0201 BA2E 04F2  30 	clr *r2+
0202 BA30 04F2  30 	clr *r2+
0203 BA32 04F2  30 	clr *r2+
0204               
0205               * put sanish values in the user feedback registers
0206 BA34 0707  14 	seto r7				* playing flag
0207 BA36 0709  14 	seto r9				* volume bytes
0208 BA38 070A  14 	seto r10
0209 BA3A 04CC  14 	clr r12				* tone words
0210 BA3C 04CD  14 	clr r13
0211 BA3E 04CE  14 	clr r14
0212 BA40 04CF  14 	clr r15
0213               
0214 BA42 02E0  18 	lwpi >8300			* c workspace
     BA44 8300 
0215 BA46 045B  20 	b *r11				* back to caller
0216               
0217               * call to stop the tune or initialize to silence
0218               * uses r0, r1
0219               ststop
0220 BA48 02E0  18 	lwpi songwp
     BA4A 83E0 
0221               
0222 BA4C 0201  20 	li r1, 52			* 12*4 + 4
     BA4E 0034 
0223 BA50 0200  20 	li r0, strm
     BA52 B8B2 
0224               sts1
0225 BA54 04F0  30 	clr *r0+			* get stream offset
0226 BA56 0601  14 	dec r1
0227 BA58 16FD  14 	jne sts1
0228               
0229 BA5A 04C7  14 	clr r7				* clear playing flag
0230 BA5C 02E0  18 	lwpi >8300			* c workspace
     BA5E 8300 
0231 BA60 045B  20 	b *r11				* back to caller
0232               
0233               
0234 BA62 8000     dat80	data >8000
0235 BA64 4000     dat40	data >4000
0236 BA66 0001     dat01	data >0001
0237 BA68 80A0     tonemk	data >80a0, >c0e0
     BA6A C0E0 
0238 BA6C 90B0     volmk	data >90b0, >d0f0
     BA6E D0F0 
0239 BA70 4142     specdt	data >4142, >4300
     BA72 4300 
0240               
0241               * call every vblank to update the music
0242               * intended to be called from vblank hook - returns with
0243               * the workspace changed to songwp
0244               stplay
0245               timingin
0246               ** temp hack - measuring time **
0247               *	li r0, >0487
0248               *	movb r0, @>8c02
0249               *	swpb r0
0250               *	movb r0, @>8c02
0251               *********************************
0252               
0253 BA74 C80B  38 	mov r11, @retad		* save return address
     BA76 B92C 
0254 BA78 02E0  18 	lwpi songwp			* get 'our' workspace
     BA7A 83E0 
0255               
0256               * Rasmus: Commented out since I don't use the ISR
0257               *	seto @scrnto		* reset the screen timeout (and make odd)
0258               
0259 BA7C 04C7  14 	clr r7				* flag for caller - if 0,  the song is over (songwp+14)
0260               
0261 BA7E 04C4  14 	clr r4				* counter for 4 voices
0262 BA80 0205  20 	li r5, strm			* pointing to first stream object
     BA82 B8B2 
0263 BA84 0206  20 	li r6, tmcnt		* pointing to first time counter
     BA86 B912 
0264               
0265               stpl1
0266 BA88 C025  34 	mov @64(r5), r0		* test time stream pointer (stream 8,  8 bytes per stream,  8*8)
     BA8A 0040 
0267 BA8C 1374  14 	jeq stpl2			* skip if empty
0268               
0269 BA8E 0707  14 	seto r7				* found valid data,  flag for caller
0270               
0271 BA90 0616  26 	dec *r6				* decrement timer
0272 BA92 1871  14 	joc stpl2			* was not zero,  next loop (this will catch 0 -> -1, as desired)
0273               
0274               stplx1
0275 BA94 C0C5  18 	mov r5, r3
0276 BA96 0223  22 	ai r3, 64			* pointer to time stream (stream 8)
     BA98 0040 
0277               
0278 BA9A C026  34 	mov @8(r6),r0		* tmocnt
     BA9C 0008 
0279 BA9E 1303  14 	jeq stplx2			* no override active
0280               
0281 BAA0 0626  34 	dec @8(r6)			* tmocnt (count down)
     BAA2 0008 
0282 BAA4 1030  14 	jmp postld			* go get the data
0283               
0284               stplx2
0285 BAA6 06A0  32 	bl @getbyte			* get a compressed byte
     BAA8 B92E 
0286 BAAA D000  18 	movb r0, r0			* test the result
0287 BAAC 1602  14 	jne stpl3			* was not zero
0288               
0289 BAAE 04D3  26 	clr *r3				* zero the timestream pointer
0290 BAB0 1062  14 	jmp stpl2			* next loop
0291               
0292               stpl3
0293 BAB2 04C8  14 	clr r8
0294 BAB4 D200  18 	movb r0, r8			* save the command
0295               
0296 BAB6 0288  22 	ci r8,>7a00			* test for special range
     BAB8 7A00 
0297 BABA 1A27  14 	jl stlp3b
0298 BABC 131C  14 	jeq stshrt
0299 BABE 0288  22 	ci r8,>7f00
     BAC0 7F00 
0300 BAC2 1B23  14 	jh stlp3b
0301               
0302 BAC4 0288  22 	ci r8,>7d00
     BAC6 7D00 
0303 BAC8 1A0B  14 	jl stborc
0304               
0305 BACA 04E6  34 	clr @16(r6)				* tmovr
     BACC 0010 
0306 BACE D9A0  54 	movb @specdt,@16(r6)	* was >7d,>7e,>7f
     BAD0 BA70 
     BAD2 0010 
0307 BAD4 0228  22 	ai r8,->7c00
     BAD6 8400 
0308 BAD8 06C8  14 	swpb r8
0309 BADA C988  38 	mov r8,@8(r6)			* tmocnt
     BADC 0008 
0310 BADE 1013  14 	jmp postld
0311               
0312               stborc
0313 BAE0 04E6  34 	clr @16(r6)				* tmovr
     BAE2 0010 
0314 BAE4 D9A0  54 	movb @specdt+1,@16(r6)	* was >7b or >7c
     BAE6 BA71 
     BAE8 0010 
0315 BAEA 0228  22 	ai r8,->7a00
     BAEC 8600 
0316 BAEE 06C8  14 	swpb r8
0317 BAF0 C988  38 	mov r8,@8(r6)			* tmocnt
     BAF2 0008 
0318 BAF4 1008  14 	jmp postld
0319               
0320               stshrt
0321 BAF6 04E6  34 	clr @16(r6)				* tmovr
     BAF8 0010 
0322 BAFA D9A0  54 	movb @specdt+2,@16(r6)	* was a >7a
     BAFC BA72 
     BAFE 0010 
0323 BB00 C9A0  54 	mov @dat01,@8(r6)		* tmocnt
     BB02 BA66 
     BB04 0008 
0324               
0325               postld
0326 BB06 D226  34 	movb @16(r6),r8			* tmovr - get the override byte
     BB08 0010 
0327               
0328               stlp3b
0329 BB0A 2220  38 	coc @dat80, r8		* check for tone
     BB0C BA62 
0330 BB0E 1620  14 	jne stpl4			* not set,  skip
0331               
0332 BB10 C0C5  18 	mov r5, r3			* base stream is tones
0333 BB12 04C0  14 	clr r0				* prepare for tone index (not needed if noise)
0334 BB14 06A0  32 	bl @getbyte			* get it
     BB16 B92E 
0335               
0336 BB18 0284  22 	ci r4, 3			* check for noise channel
     BB1A 0003 
0337 BB1C 1606  14 	jne sttone
0338               
0339               *noise channel
0340 BB1E F020  34 	socb @tonemk+3, r0	* or in the sound command nibble (we know we are on channel 3, save some code+time)
     BB20 BA6B 
0341 BB22 D800  38 	movb r0, @>8400		* move to the sound chip
     BB24 8400 
0342 BB26 06C0  14 	swpb r0				* swap data so we can save it off
0343 BB28 100F  14 	jmp stpl4a
0344               
0345               sttone
0346 BB2A 06C0  14 	swpb r0				* get into correct byte
0347 BB2C 0A10  56 	sla r0,1			* make index
0348 BB2E C060  34 	mov @songad,r1		* we need this address twice
     BB30 B92A 
0349 BB32 A001  18 	a r1,r0				* make pointer
0350 BB34 05C1  14 	inct r1				* pointer to the frequency table
0351 BB36 A011  26 	a *r1,r0			* and add the offset to the pointer table
0352 BB38 C010  26 	mov *r0, r0			* get the frequency data
0353 BB3A F024  34 	socb @tonemk(r4), r0	* or in the sound command nibble
     BB3C BA68 
0354 BB3E D800  38 	movb r0, @>8400		* move to the sound chip
     BB40 8400 
0355 BB42 06C0  14 	swpb r0				* swap data so we can save it off
0356 BB44 D800  38 	movb r0, @>8400		* move the second byte
     BB46 8400 
0357               
0358               stpl4a
0359 BB48 0A14  56 	sla r4,1			* make an index
0360 BB4A C900  38 	mov r0,@songwp+24(r4)	* save it (r12->r15)
     BB4C 83F8 
0361 BB4E 0914  56 	srl r4,1			* change it back
0362               
0363               stpl4
0364 BB50 2220  38 	coc @dat40, r8		* check for volume
     BB52 BA64 
0365 BB54 160B  14 	jne stpl5
0366               
0367 BB56 C0C5  18 	mov r5, r3
0368 BB58 0223  22 	ai r3, 32			* 4 streams up,  4*8
     BB5A 0020 
0369 BB5C 06A0  32 	bl @getbyte			* get it
     BB5E B92E 
0370 BB60 F024  34 	socb @volmk(r4), r0	* or in the sound command nibble
     BB62 BA6C 
0371 BB64 D800  38 	movb r0, @>8400		* move to the sound chip
     BB66 8400 
0372 BB68 D900  38 	movb r0, @songwp+18(r4)	* save it off (r9->r10)
     BB6A 83F2 
0373               
0374               stpl5
0375 BB6C 0248  22 	andi r8, >3f00		* mask off the count
     BB6E 3F00 
0376 BB70 06C8  14 	swpb r8				* make int
0377 BB72 0608  14 	dec r8				* decement for this tick
0378 BB74 C588  30 	mov r8, *r6			* save it off
0379               
0380               stpl2
0381 BB76 0225  22 	ai r5, 8			* next stream struct
     BB78 0008 
0382 BB7A 05C6  14 	inct r6				* next timer
0383 BB7C 0584  14 	inc r4				* next loop
0384 BB7E 0284  22 	ci r4, 4			* are we done?
     BB80 0004 
0385 BB82 1682  14 	jne stpl1			* not yet
0386               
0387               ** temp hack - measuring time **
0388               *	li r0, >0287
0389               *	movb r0, @>8c02
0390               *	swpb r0
0391               *	movb r0, @>8c02
0392               *********************************
0393               
0394 BB84 C2E0  34 	mov @retad, r11		* get return address back
     BB86 B92C 
0395               
0396               timingout
0397 BB88 045B  20 	b *r11				* now done 1 tick
0398               
0399               *	end                 * Rasmus: Commented out
**** **** ****     > bouncy.a99
3464               *      COPY "tiplayersfx.a99"
3465                      COPY "level1.a99"
**** **** ****     > level1.a99
0001               ***************************************************************************
0002               *
0003               * Level 1 data
0004               *
0005               ***************************************************************************
0006               
0007               ****************************************
0008               * Map Data (meta tiles, packed in nybbles)
0009               ****************************************
0010 BB8A 7711     MTMAP1 DATA >7711,>1111,>1177
     BB8C 1111 
     BB8E 1177 
0011 BB90 7110            DATA >7110,>0000,>0117
     BB92 0000 
     BB94 0117 
0012 BB96 7110            DATA >7110,>5555,>0117
     BB98 5555 
     BB9A 0117 
0013 BB9C 7110            DATA >7110,>5555,>0117
     BB9E 5555 
     BBA0 0117 
0014 BBA2 7110            DATA >7110,>3000,>0117
     BBA4 3000 
     BBA6 0117 
0015 BBA8 7111            DATA >7111,>1616,>6111
     BBAA 1616 
     BBAC 6111 
0016 BBAE 7101            DATA >7101,>1601,>6661
     BBB0 1601 
     BBB2 6661 
0017 BBB4 7111            DATA >7111,>6610,>1666
     BBB6 6610 
     BBB8 1666 
0018 BBBA 7101            DATA >7101,>6661,>1661
     BBBC 6661 
     BBBE 1661 
0019 BBC0 7111            DATA >7111,>1660,>1361
     BBC2 1660 
     BBC4 1361 
0020 BBC6 7101            DATA >7101,>1666,>1066
     BBC8 1666 
     BBCA 1066 
0021 BBCC 7111            DATA >7111,>1116,>3166
     BBCE 1116 
     BBD0 3166 
0022 BBD2 7121            DATA >7121,>7166,>1661
     BBD4 7166 
     BBD6 1661 
0023 BBD8 1111            DATA >1111,>7166,>0617
     BBDA 7166 
     BBDC 0617 
0024 BBDE 1011            DATA >1011,>7166,>1667
     BBE0 7166 
     BBE2 1667 
0025 BBE4 7111            DATA >7111,>1116,>4617
     BBE6 1116 
     BBE8 4617 
0026 BBEA 1211            DATA >1211,>1000,>0007
     BBEC 1000 
     BBEE 0007 
0027 BBF0 1117            DATA >1117,>1000,>0037
     BBF2 1000 
     BBF4 0037 
0028 BBF6 0177            DATA >0177,>1000,>0007
     BBF8 1000 
     BBFA 0007 
0029 BBFC 1171            DATA >1171,>0003,>0007
     BBFE 0003 
     BC00 0007 
0030 BC02 0171            DATA >0171,>0011,>1117
     BC04 0011 
     BC06 1117 
0031 BC08 1111            DATA >1111,>0111,>7717
     BC0A 0111 
     BC0C 7717 
0032 BC0E 0030            DATA >0030,>0111,>1777
     BC10 0111 
     BC12 1777 
0033 BC14 0000            DATA >0000,>0111,>1177
     BC16 0111 
     BC18 1177 
0034 BC1A 3000            DATA >3000,>0116,>1177
     BC1C 0116 
     BC1E 1177 
0035 BC20 0000            DATA >0000,>0166,>6117
     BC22 0166 
     BC24 6117 
0036 BC26 1011            DATA >1011,>1166,>6111
     BC28 1166 
     BC2A 6111 
0037 BC2C 7111            DATA >7111,>6666,>6661
     BC2E 6666 
     BC30 6661 
0038 BC32 7716            DATA >7716,>6611,>6666
     BC34 6611 
     BC36 6666 
0039 BC38 7116            DATA >7116,>1111,>1666
     BC3A 1111 
     BC3C 1666 
0040 BC3E 1401            DATA >1401,>1777,>1161
     BC40 1777 
     BC42 1161 
0041 BC44 1001            DATA >1001,>1777,>1111
     BC46 1777 
     BC48 1111 
0042 BC4A 1031            DATA >1031,>1111,>1117
     BC4C 1111 
     BC4E 1117 
0043 BC50 1001            DATA >1001,>0100,>0017
     BC52 0100 
     BC54 0017 
0044 BC56 1111            DATA >1111,>1103,>3011
     BC58 1103 
     BC5A 3011 
0045 BC5C 1100            DATA >1100,>1103,>3011
     BC5E 1103 
     BC60 3011 
0046 BC62 6100            DATA >6100,>1100,>0017
     BC64 1100 
     BC66 0017 
0047 BC68 6111            DATA >6111,>1111,>1117
     BC6A 1111 
     BC6C 1117 
0048 BC6E 6611            DATA >6611,>0000,>1177
     BC70 0000 
     BC72 1177 
0049 BC74 6661            DATA >6661,>0200,>1777
     BC76 0200 
     BC78 1777 
0050 BC7A 6661            DATA >6661,>0000,>1177
     BC7C 0000 
     BC7E 1177 
0051 BC80 6661            DATA >6661,>0000,>1177
     BC82 0000 
     BC84 1177 
0052 BC86 6611            DATA >6611,>1111,>1117
     BC88 1111 
     BC8A 1117 
0053 BC8C 1111            DATA >1111,>7777,>1111
     BC8E 7777 
     BC90 1111 
0054 BC92 7111            DATA >7111,>1111,>1117
     BC94 1111 
     BC96 1117 
0055 BC98 7711            DATA >7711,>6646,>1117
     BC9A 6646 
     BC9C 1117 
0056 BC9E 7716            DATA >7716,>0000,>6177
     BCA0 0000 
     BCA2 6177 
0057 BCA4 7160            DATA >7160,>0003,>6177
     BCA6 0003 
     BCA8 6177 
0058 BCAA 7160            DATA >7160,>3000,>6117
     BCAC 3000 
     BCAE 6117 
0059 BCB0 7160            DATA >7160,>0000,>6111
     BCB2 0000 
     BCB4 6111 
0060 BCB6 7160            DATA >7160,>6666,>0000
     BCB8 6666 
     BCBA 0000 
0061 BCBC 7160            DATA >7160,>0000,>0020
     BCBE 0000 
     BCC0 0020 
0062 BCC2 7110            DATA >7110,>0000,>0000
     BCC4 0000 
     BCC6 0000 
0063 BCC8 7711            DATA >7711,>1111,>1111
     BCCA 1111 
     BCCC 1111 
0064 BCCE 7711            DATA >7711,>1111,>1011
     BCD0 1111 
     BCD2 1011 
0065 BCD4 7111            DATA >7111,>1111,>1111
     BCD6 1111 
     BCD8 1111 
0066 BCDA 1000            DATA >1000,>1771,>0001
     BCDC 1771 
     BCDE 0001 
0067 BCE0 1020            DATA >1020,>1771,>0301
     BCE2 1771 
     BCE4 0301 
0068 BCE6 1000            DATA >1000,>1111,>0001
     BCE8 1111 
     BCEA 0001 
0069 BCEC 0000            DATA >0000,>0000,>0000
     BCEE 0000 
     BCF0 0000 
0070 BCF2 0000            DATA >0000,>0000,>0000
     BCF4 0000 
     BCF6 0000 
0071 BCF8 0000            DATA >0000,>0000,>0000
     BCFA 0000 
     BCFC 0000 
0072 BCFE 0000            DATA >0000,>0000,>0000
     BD00 0000 
     BD02 0000 
0073 BD04 1111            DATA >1111,>1111,>1111
     BD06 1111 
     BD08 1111 
0074               
0075               *      Enemy definition list
0076               
0077               * Enemy type (0: eol, 1: bounded, >1: not bounded)
0078               * X position in meta tiles
0079               * Y position in meta tiles
0080               * X velocity
0081               * Y velocity
0082               * Pattern number
0083               * Color 1st sprite layer
0084               * Color 2nd sprite layer
0085               
0086 BD0A 0006     EDLST1 DATA 6                           * Size
0087 BD0C 0200            BYTE 2,0,51,1,0,PSCISS,>0E,>0F
     BD0E 3301 
     BD10 0060 
     BD12 0E0F 
0088 BD14 0103            BYTE 1,3,49,1,0,PDICE,>0F,>01
     BD16 3101 
     BD18 0040 
     BD1A 0F01 
0089 BD1C 0105            BYTE 1,5,41,1,0,PDICE,>0F,>01
     BD1E 2901 
     BD20 0040 
     BD22 0F01 
0090 BD24 0108            BYTE 1,8,35,0,1,PDICE,>0F,>01
     BD26 2300 
     BD28 0140 
     BD2A 0F01 
0091 BD2C 0100            BYTE 1,0,25,1,0,PDICE,>0F,>01
     BD2E 1901 
     BD30 0040 
     BD32 0F01 
0092 BD34 0200            BYTE 2,0,8,1,0,PSCISS,>0E,>0F
     BD36 0801 
     BD38 0060 
     BD3A 0E0F 
0093               
0094               *      Switches
0095 BD3C 000A     SWLST1 DATA SWLSE1-SWLST1               * Size
0096 BD3E 0239            DATA >0239,MTCOIN,MTSW11
     BD40 0003 
     BD42 BD46 
0097 BD44 0000            DATA 0
0098               SWLSE1
0099               
0100               *      Meta tiles triggered by switches
0101 BD46 0335     MTSW11 DATA >0335,>0336,>0337,0
     BD48 0336 
     BD4A 0337 
     BD4C 0000 
0102               
**** **** ****     > bouncy.a99
3466                      COPY "level2.a99"
**** **** ****     > level2.a99
0001               ***************************************************************************
0002               *
0003               * Level 2 data
0004               *
0005               ***************************************************************************
0006               
0007               ****************************************
0008               * Map Data (meta tiles, packed in nybbles)
0009               ****************************************
0010 BD4E 7777     MTMAP2 DATA >7777,>7777,>7777
     BD50 7777 
     BD52 7777 
0011 BD54 7777            DATA >7777,>0000,>7777
     BD56 0000 
     BD58 7777 
0012 BD5A 7777            DATA >7777,>0550,>7777
     BD5C 0550 
     BD5E 7777 
0013 BD60 7777            DATA >7777,>0550,>7777
     BD62 0550 
     BD64 7777 
0014 BD66 7777            DATA >7777,>0000,>7777
     BD68 0000 
     BD6A 7777 
0015 BD6C 7777            DATA >7777,>7077,>7777
     BD6E 7077 
     BD70 7777 
0016 BD72 7777            DATA >7777,>7277,>7777
     BD74 7277 
     BD76 7777 
0017 BD78 7777            DATA >7777,>7007,>0077
     BD7A 7007 
     BD7C 0077 
0018 BD7E 7777            DATA >7777,>7777,>7077
     BD80 7777 
     BD82 7077 
0019 BD84 7777            DATA >7777,>7777,>7277
     BD86 7777 
     BD88 7277 
0020 BD8A 7776            DATA >7776,>6677,>7077
     BD8C 6677 
     BD8E 7077 
0021 BD90 7766            DATA >7766,>6667,>7077
     BD92 6667 
     BD94 7077 
0022 BD96 7766            DATA >7766,>6666,>7777
     BD98 6666 
     BD9A 7777 
0023 BD9C 7763            DATA >7763,>6363,>7077
     BD9E 6363 
     BDA0 7077 
0024 BDA2 7766            DATA >7766,>6666,>7077
     BDA4 6666 
     BDA6 7077 
0025 BDA8 7773            DATA >7773,>6677,>0077
     BDAA 6677 
     BDAC 0077 
0026 BDAE 7777            DATA >7777,>7670,>0007
     BDB0 7670 
     BDB2 0007 
0027 BDB4 7700            DATA >7700,>7770,>2007
     BDB6 7770 
     BDB8 2007 
0028 BDBA 7000            DATA >7000,>0070,>0077
     BDBC 0070 
     BDBE 0077 
0029 BDC0 7027            DATA >7027,>0077,>0077
     BDC2 0077 
     BDC4 0077 
0030 BDC6 7007            DATA >7007,>0777,>7777
     BDC8 0777 
     BDCA 7777 
0031 BDCC 7700            DATA >7700,>2707,>7777
     BDCE 2707 
     BDD0 7777 
0032 BDD2 7770            DATA >7770,>0700,>0077
     BDD4 0700 
     BDD6 0077 
0033 BDD8 7770            DATA >7770,>0700,>2077
     BDDA 0700 
     BDDC 2077 
0034 BDDE 7777            DATA >7777,>7700,>0077
     BDE0 7700 
     BDE2 0077 
0035 BDE4 7777            DATA >7777,>7777,>0077
     BDE6 7777 
     BDE8 0077 
0036 BDEA 7777            DATA >7777,>0077,>7777
     BDEC 0077 
     BDEE 7777 
0037 BDF0 7777            DATA >7777,>0000,>0777
     BDF2 0000 
     BDF4 0777 
0038 BDF6 7770            DATA >7770,>2000,>7777
     BDF8 2000 
     BDFA 7777 
0039 BDFC 7770            DATA >7770,>0077,>7777
     BDFE 0077 
     BE00 7777 
0040 BE02 7777            DATA >7777,>0777,>7777
     BE04 0777 
     BE06 7777 
0041 BE08 7776            DATA >7776,>6667,>7777
     BE0A 6667 
     BE0C 7777 
0042 BE0E 7711            DATA >7711,>6111,>1777
     BE10 6111 
     BE12 1777 
0043 BE14 7716            DATA >7716,>4111,>1177
     BE16 4111 
     BE18 1177 
0044 BE1A 7116            DATA >7116,>0661,>1177
     BE1C 0661 
     BE1E 1177 
0045 BE20 7166            DATA >7166,>6666,>6177
     BE22 6666 
     BE24 6177 
0046 BE26 7666            DATA >7666,>3633,>6677
     BE28 3633 
     BE2A 6677 
0047 BE2C 7666            DATA >7666,>6666,>6667
     BE2E 6666 
     BE30 6667 
0048 BE32 7766            DATA >7766,>6263,>3667
     BE34 6263 
     BE36 3667 
0049 BE38 7776            DATA >7776,>6666,>3667
     BE3A 6666 
     BE3C 3667 
0050 BE3E 7777            DATA >7777,>6666,>3677
     BE40 6666 
     BE42 3677 
0051 BE44 7777            DATA >7777,>7766,>6677
     BE46 7766 
     BE48 6677 
0052 BE4A 7000            DATA >7000,>0000,>0007
     BE4C 0000 
     BE4E 0007 
0053 BE50 0300            DATA >0300,>0000,>3000
     BE52 0000 
     BE54 3000 
0054 BE56 0777            DATA >0777,>7777,>7700
     BE58 7777 
     BE5A 7700 
0055 BE5C 7777            DATA >7777,>7777,>7703
     BE5E 7777 
     BE60 7703 
0056 BE62 7777            DATA >7777,>7666,>7770
     BE64 7666 
     BE66 7770 
0057 BE68 7777            DATA >7777,>6646,>7770
     BE6A 6646 
     BE6C 7770 
0058 BE6E 7777            DATA >7777,>6206,>6777
     BE70 6206 
     BE72 6777 
0059 BE74 7777            DATA >7777,>6666,>6777
     BE76 6666 
     BE78 6777 
0060 BE7A 7777            DATA >7777,>7666,>6677
     BE7C 7666 
     BE7E 6677 
0061 BE80 7777            DATA >7777,>7646,>6677
     BE82 7646 
     BE84 6677 
0062 BE86 7777            DATA >7777,>6600,>6777
     BE88 6600 
     BE8A 6777 
0063 BE8C 7777            DATA >7777,>6666,>7777
     BE8E 6666 
     BE90 7777 
0064 BE92 7776            DATA >7776,>6670,>0777
     BE94 6670 
     BE96 0777 
0065 BE98 7776            DATA >7776,>6770,>0777
     BE9A 6770 
     BE9C 0777 
0066 BE9E 7777            DATA >7777,>7777,>7777
     BEA0 7777 
     BEA2 7777 
0067 BEA4 7777            DATA >7777,>7770,>0777
     BEA6 7770 
     BEA8 0777 
0068 BEAA 7777            DATA >7777,>7770,>0777
     BEAC 7770 
     BEAE 0777 
0069 BEB0 7777            DATA >7777,>7777,>7777
     BEB2 7777 
     BEB4 7777 
0070 BEB6 7777            DATA >7777,>0000,>7777
     BEB8 0000 
     BEBA 7777 
0071 BEBC 7777            DATA >7777,>0000,>7777
     BEBE 0000 
     BEC0 7777 
0072 BEC2 7777            DATA >7777,>0000,>7777
     BEC4 0000 
     BEC6 7777 
0073 BEC8 7777            DATA >7777,>0000,>7777
     BECA 0000 
     BECC 7777 
0074               
0075               *      Enemy defition list
0076               *
0077               * Enemy type (0: eol, 1: bounded, >1: not bounded)
0078               * X position in meta tiles
0079               * Y position in meta tiles
0080               * X velocity
0081               * Y velocity
0082               * Pattern number
0083               * Color 1st sprite layer
0084               * Color 2nd sprite layer
0085               *
0086 BECE 0005     EDLST2 DATA 5                           * Size
0087 BED0 0108            BYTE 1,8,54,0,1,PDICE,>0F,>01
     BED2 3600 
     BED4 0140 
     BED6 0F01 
0088 BED8 0105            BYTE 1,5,42,0,1,PDICE,>0F,>01
     BEDA 2A00 
     BEDC 0140 
     BEDE 0F01 
0089 BEE0 0200            BYTE 2,0,27,1,0,PSCISS,>0E,>0F
     BEE2 1B01 
     BEE4 0060 
     BEE6 0E0F 
0090 BEE8 0101            BYTE 1,1,20,1,0,PDICE,>0F,>01
     BEEA 1401 
     BEEC 0040 
     BEEE 0F01 
0091 BEF0 0309            BYTE 3,9,7,0,1,PTANK,>0A,>01
     BEF2 0700 
     BEF4 0180 
     BEF6 0A01 
0092               
0093               *      Switches
0094 BEF8 0004     SWLST2 DATA SWLSE2-SWLST2               * Size
0095 BEFA 0000            DATA 0
0096               SWLSE2
0097               
0098               *      Meta tiles triggered by switches
0099 BEFC 0000     MTSW21 DATA 0
**** **** ****     > bouncy.a99
3467                      COPY "level3.a99"
**** **** ****     > level3.a99
0001               ***************************************************************************
0002               *
0003               * Level 3 data
0004               *
0005               ***************************************************************************
0006               
0007               ****************************************
0008               * Map Data (meta tiles, packed in nybbles)
0009               ****************************************
0010 BEFE 1111     MTMAP3 DATA >1111,>1111,>1111
     BF00 1111 
     BF02 1111 
0011 BF04 1151            DATA >1151,>1111,>1177
     BF06 1111 
     BF08 1177 
0012 BF0A 1555            DATA >1555,>1111,>1777
     BF0C 1111 
     BF0E 1777 
0013 BF10 1151            DATA >1151,>1001,>7777
     BF12 1001 
     BF14 7777 
0014 BF16 1111            DATA >1111,>1177,>7711
     BF18 1177 
     BF1A 7711 
0015 BF1C 6666            DATA >6666,>1101,>7116
     BF1E 1101 
     BF20 7116 
0016 BF22 6666            DATA >6666,>6101,>1166
     BF24 6101 
     BF26 1166 
0017 BF28 1111            DATA >1111,>1011,>1666
     BF2A 1011 
     BF2C 1666 
0018 BF2E 1141            DATA >1141,>0116,>6666
     BF30 0116 
     BF32 6666 
0019 BF34 1101            DATA >1101,>7166,>6666
     BF36 7166 
     BF38 6666 
0020 BF3A 1100            DATA >1100,>1166,>6666
     BF3C 1166 
     BF3E 6666 
0021 BF40 1111            DATA >1111,>1166,>6666
     BF42 1166 
     BF44 6666 
0022 BF46 1011            DATA >1011,>1116,>6666
     BF48 1116 
     BF4A 6666 
0023 BF4C 1001            DATA >1001,>0111,>6666
     BF4E 0111 
     BF50 6666 
0024 BF52 1111            DATA >1111,>0010,>1111
     BF54 0010 
     BF56 1111 
0025 BF58 1111            DATA >1111,>1111,>1011
     BF5A 1111 
     BF5C 1011 
0026 BF5E 1111            DATA >1111,>1771,>1111
     BF60 1771 
     BF62 1111 
0027 BF64 1111            DATA >1111,>1771,>1017
     BF66 1771 
     BF68 1017 
0028 BF6A 1111            DATA >1111,>7771,>1177
     BF6C 7771 
     BF6E 1177 
0029 BF70 1177            DATA >1177,>7770,>1077
     BF72 7770 
     BF74 1077 
0030 BF76 7777            DATA >7777,>7711,>1777
     BF78 7711 
     BF7A 1777 
0031 BF7C 7777            DATA >7777,>7110,>1777
     BF7E 7110 
     BF80 1777 
0032 BF82 1777            DATA >1777,>1111,>7777
     BF84 1111 
     BF86 7777 
0033 BF88 1111            DATA >1111,>1101,>7777
     BF8A 1101 
     BF8C 7777 
0034 BF8E 1110            DATA >1110,>0111,>1777
     BF90 0111 
     BF92 1777 
0035 BF94 1100            DATA >1100,>0010,>1177
     BF96 0010 
     BF98 1177 
0036 BF9A 1100            DATA >1100,>2011,>1117
     BF9C 2011 
     BF9E 1117 
0037 BFA0 7110            DATA >7110,>0011,>1111
     BFA2 0011 
     BFA4 1111 
0038 BFA6 7711            DATA >7711,>0014,>0001
     BFA8 0014 
     BFAA 0001 
0039 BFAC 7771            DATA >7771,>1111,>1101
     BFAE 1111 
     BFB0 1101 
0040 BFB2 7711            DATA >7711,>1111,>1111
     BFB4 1111 
     BFB6 1111 
0041 BFB8 7111            DATA >7111,>1110,>4111
     BFBA 1110 
     BFBC 4111 
0042 BFBE 1111            DATA >1111,>0100,>1111
     BFC0 0100 
     BFC2 1111 
0043 BFC4 1000            DATA >1000,>0111,>1771
     BFC6 0111 
     BFC8 1771 
0044 BFCA 1111            DATA >1111,>1111,>7777
     BFCC 1111 
     BFCE 7777 
0045 BFD0 0166            DATA >0166,>6666,>1711
     BFD2 6666 
     BFD4 1711 
0046 BFD6 0111            DATA >0111,>1111,>1111
     BFD8 1111 
     BFDA 1111 
0047 BFDC 1100            DATA >1100,>0100,>0110
     BFDE 0100 
     BFE0 0110 
0048 BFE2 1111            DATA >1111,>1110,>0100
     BFE4 1110 
     BFE6 0100 
0049 BFE8 1111            DATA >1111,>1111,>1100
     BFEA 1111 
     BFEC 1100 
0050 BFEE 1166            DATA >1166,>1111,>1103
     BFF0 1111 
     BFF2 1103 
0051 BFF4 1666            DATA >1666,>6611,>1000
     BFF6 6611 
     BFF8 1000 
0052 BFFA 1666            DATA >1666,>6661,>0000
     BFFC 6661 
     BFFE 0000 
0053 C000 6666            DATA >6666,>6661,>1001
     C002 6661 
     C004 1001 
0054 C006 6666            DATA >6666,>6611,>1111
     C008 6611 
     C00A 1111 
0055 C00C 6666            DATA >6666,>6110,>0000
     C00E 6110 
     C010 0000 
0056 C012 6666            DATA >6666,>6101,>0101
     C014 6101 
     C016 0101 
0057 C018 1166            DATA >1166,>1111,>1111
     C01A 1111 
     C01C 1111 
0058 C01E 1111            DATA >1111,>1111,>1611
     C020 1111 
     C022 1611 
0059 C024 1111            DATA >1111,>1111,>1661
     C026 1111 
     C028 1661 
0060 C02A 1111            DATA >1111,>1101,>1661
     C02C 1101 
     C02E 1661 
0061 C030 6111            DATA >6111,>0000,>0660
     C032 0000 
     C034 0660 
0062 C036 6111            DATA >6111,>1111,>1662
     C038 1111 
     C03A 1662 
0063 C03C 6100            DATA >6100,>0116,>6610
     C03E 0116 
     C040 6610 
0064 C042 6103            DATA >6103,>0111,>6100
     C044 0111 
     C046 6100 
0065 C048 6100            DATA >6100,>0001,>1100
     C04A 0001 
     C04C 1100 
0066 C04E 6611            DATA >6611,>1100,>0030
     C050 1100 
     C052 0030 
0067 C054 6611            DATA >6611,>1100,>1000
     C056 1100 
     C058 1000 
0068 C05A 6661            DATA >6661,>1111,>1100
     C05C 1111 
     C05E 1100 
0069 C060 6611            DATA >6611,>0000,>1100
     C062 0000 
     C064 1100 
0070 C066 6610            DATA >6610,>3000,>0102
     C068 3000 
     C06A 0102 
0071 C06C 6110            DATA >6110,>0000,>0110
     C06E 0000 
     C070 0110 
0072 C072 6111            DATA >6111,>0000,>1111
     C074 0000 
     C076 1111 
0073 C078 1111            DATA >1111,>1111,>1111
     C07A 1111 
     C07C 1111 
0074               
0075               *      Enemy definition list
0076               
0077               * Enemy type (0: eol, 1: bounded, >1: not bounded)
0078               * X position in meta tiles
0079               * Y position in meta tiles
0080               * X velocity
0081               * Y velocity
0082               * Pattern number
0083               * Color 1st sprite layer
0084               * Color 2nd sprite layer
0085               
0086 C07E 0006     EDLST3 DATA 6                           * Size
0087 C080 0200            BYTE 2,0,9,1,0,PSCISS,>0E,>0F
     C082 0901 
     C084 0060 
     C086 0E0F 
0088 C088 0200            BYTE 2,0,13,1,0,PSCISS,>0E,>0F
     C08A 0D01 
     C08C 0060 
     C08E 0E0F 
0089 C090 0306            BYTE 3,6,23,0,1,PTANK,>0A,>01
     C092 1700 
     C094 0180 
     C096 0A01 
0090 C098 010A            BYTE 1,10,38,0,1,PDICE,>0F,>01
     C09A 2600 
     C09C 0140 
     C09E 0F01 
0091 C0A0 040B            BYTE 4,11,45,-1,0,PKNIFE,>08,>0E
     C0A2 2DFF 
     C0A4 00A0 
     C0A6 080E 
0092 C0A8 0102            BYTE 1,2,53,0,1,PDICE,>0F,>01
     C0AA 3500 
     C0AC 0140 
     C0AE 0F01 
0093               
0094               *      Switches
0095 C0B0 000A     SWLST3 DATA SWLSE3-SWLST3               * Size
0096 C0B2 0B34            DATA >0B34,MTTILE,MTSW31
     C0B4 0000 
     C0B6 C0BA 
0097 C0B8 0000            DATA 0
0098               SWLSE3
0099               
0100               *      Meta tiles triggered by switches
0101 C0BA 062F     MTSW31 DATA >062F,>0630,>0631,0
     C0BC 0630 
     C0BE 0631 
     C0C0 0000 
**** **** ****     > bouncy.a99
3468                      COPY "level4.a99"
**** **** ****     > level4.a99
0001               ***************************************************************************
0002               *
0003               * Level 4 data
0004               *
0005               ***************************************************************************
0006               
0007               ****************************************
0008               * Map Data (meta tiles, packed in nybbles)
0009               ****************************************
0010 C0C2 6666     MTMAP4 DATA >6666,>6116,>6666
     C0C4 6116 
     C0C6 6666 
0011 C0C8 6666            DATA >6666,>1551,>6666
     C0CA 1551 
     C0CC 6666 
0012 C0CE 6661            DATA >6661,>5555,>1666
     C0D0 5555 
     C0D2 1666 
0013 C0D4 6615            DATA >6615,>5555,>5166
     C0D6 5555 
     C0D8 5166 
0014 C0DA 0000            DATA >0000,>5555,>1666
     C0DC 5555 
     C0DE 1666 
0015 C0E0 0666            DATA >0666,>1551,>6666
     C0E2 1551 
     C0E4 6666 
0016 C0E6 0666            DATA >0666,>6116,>6666
     C0E8 6116 
     C0EA 6666 
0017 C0EC 0666            DATA >0666,>6666,>6666
     C0EE 6666 
     C0F0 6666 
0018 C0F2 0003            DATA >0003,>0100,>3000
     C0F4 0100 
     C0F6 3000 
0019 C0F8 6666            DATA >6666,>6666,>6660
     C0FA 6666 
     C0FC 6660 
0020 C0FE 6666            DATA >6666,>6666,>6660
     C100 6666 
     C102 6660 
0021 C104 6666            DATA >6666,>0020,>0300
     C106 0020 
     C108 0300 
0022 C10A 6666            DATA >6666,>0006,>6666
     C10C 0006 
     C10E 6666 
0023 C110 6666            DATA >6666,>0306,>6666
     C112 0306 
     C114 6666 
0024 C116 6666            DATA >6666,>0006,>6666
     C118 0006 
     C11A 6666 
0025 C11C 6666            DATA >6666,>0006,>6666
     C11E 0006 
     C120 6666 
0026 C122 6666            DATA >6666,>0300,>0300
     C124 0300 
     C126 0300 
0027 C128 6666            DATA >6666,>0030,>0600
     C12A 0030 
     C12C 0600 
0028 C12E 6666            DATA >6666,>6666,>6601
     C130 6666 
     C132 6601 
0029 C134 6666            DATA >6666,>6666,>6600
     C136 6666 
     C138 6600 
0030 C13A 6666            DATA >6666,>6066,>6600
     C13C 6066 
     C13E 6600 
0031 C140 6600            DATA >6600,>2010,>0300
     C142 2010 
     C144 0300 
0032 C146 6600            DATA >6600,>6666,>6666
     C148 6666 
     C14A 6666 
0033 C14C 6600            DATA >6600,>6666,>6666
     C14E 6666 
     C150 6666 
0034 C152 6603            DATA >6603,>0000,>0066
     C154 0000 
     C156 0066 
0035 C158 6666            DATA >6666,>6666,>1066
     C15A 6666 
     C15C 1066 
0036 C15E 6666            DATA >6666,>6666,>0066
     C160 6666 
     C162 0066 
0037 C164 6660            DATA >6660,>0030,>0066
     C166 0030 
     C168 0066 
0038 C16A 6660            DATA >6660,>0066,>6666
     C16C 0066 
     C16E 6666 
0039 C170 0000            DATA >0000,>6666,>6666
     C172 6666 
     C174 6666 
0040 C176 0066            DATA >0066,>6666,>6666
     C178 6666 
     C17A 6666 
0041 C17C 0066            DATA >0066,>6666,>6666
     C17E 6666 
     C180 6666 
0042 C182 3066            DATA >3066,>6600,>2000
     C184 6600 
     C186 2000 
0043 C188 0066            DATA >0066,>6600,>6600
     C18A 6600 
     C18C 6600 
0044 C18E 0030            DATA >0030,>0100,>6603
     C190 0100 
     C192 6603 
0045 C194 6666            DATA >6666,>6666,>6600
     C196 6666 
     C198 6600 
0046 C19A 6666            DATA >6666,>6666,>6601
     C19C 6666 
     C19E 6601 
0047 C1A0 6666            DATA >6666,>6666,>6600
     C1A2 6666 
     C1A4 6600 
0048 C1A6 6666            DATA >6666,>0003,>0020
     C1A8 0003 
     C1AA 0020 
0049 C1AC 6666            DATA >6666,>0666,>6666
     C1AE 0666 
     C1B0 6666 
0050 C1B2 6600            DATA >6600,>0666,>6666
     C1B4 0666 
     C1B6 6666 
0051 C1B8 6616            DATA >6616,>6660,>0666
     C1BA 6660 
     C1BC 0666 
0052 C1BE 6606            DATA >6606,>6000,>0200
     C1C0 6000 
     C1C2 0200 
0053 C1C4 6600            DATA >6600,>3000,>6663
     C1C6 3000 
     C1C8 6663 
0054 C1CA 6666            DATA >6666,>6666,>6660
     C1CC 6666 
     C1CE 6660 
0055 C1D0 6666            DATA >6666,>6666,>6660
     C1D2 6666 
     C1D4 6660 
0056 C1D6 0100            DATA >0100,>3000,>6600
     C1D8 3000 
     C1DA 6600 
0057 C1DC 0666            DATA >0666,>6661,>0006
     C1DE 6661 
     C1E0 0006 
0058 C1E2 3666            DATA >3666,>6660,>2006
     C1E4 6660 
     C1E6 2006 
0059 C1E8 0600            DATA >0600,>0666,>6666
     C1EA 0666 
     C1EC 6666 
0060 C1EE 0606            DATA >0606,>3066,>6666
     C1F0 3066 
     C1F2 6666 
0061 C1F4 0006            DATA >0006,>6066,>6666
     C1F6 6066 
     C1F8 6666 
0062 C1FA 0006            DATA >0006,>6060,>2006
     C1FC 6060 
     C1FE 2006 
0063 C200 6666            DATA >6666,>6030,>6636
     C202 6030 
     C204 6636 
0064 C206 6666            DATA >6666,>6666,>6606
     C208 6666 
     C20A 6606 
0065 C20C 6666            DATA >6666,>6000,>1006
     C20E 6000 
     C210 1006 
0066 C212 6666            DATA >6666,>6366,>6666
     C214 6366 
     C216 6666 
0067 C218 6666            DATA >6666,>6066,>6666
     C21A 6066 
     C21C 6666 
0068 C21E 6666            DATA >6666,>6006,>6666
     C220 6006 
     C222 6666 
0069 C224 6666            DATA >6666,>0000,>6666
     C226 0000 
     C228 6666 
0070 C22A 6660            DATA >6660,>0000,>0666
     C22C 0000 
     C22E 0666 
0071 C230 6600            DATA >6600,>0000,>0066
     C232 0000 
     C234 0066 
0072 C236 6000            DATA >6000,>0000,>0006
     C238 0000 
     C23A 0006 
0073 C23C 0000            DATA >0000,>0000,>0000
     C23E 0000 
     C240 0000 
0074               
0075               *      Enemy definition list
0076               
0077               * Enemy type (0: eol, 1: bounded, >1: not bounded)
0078               * X position in meta tiles
0079               * Y position in meta tiles
0080               * X velocity
0081               * Y velocity
0082               * Pattern number
0083               * Color 1st sprite layer
0084               * Color 2nd sprite layer
0085               
0086 C242 0005     EDLST4 DATA 5
0087 C244 0101            BYTE 1,1,52,0,-1,PDICE,>0F,>01
     C246 3400 
     C248 FF40 
     C24A 0F01 
0088 C24C 0107            BYTE 1,7,41,0,1,PDICE,>0F,>01
     C24E 2900 
     C250 0140 
     C252 0F01 
0089 C254 0101            BYTE 1,1,31,-1,0,PDICE,>0F,>01
     C256 1FFF 
     C258 0040 
     C25A 0F01 
0090 C25C 0200            BYTE 2,0,21,1,0,PSCISS,>0E,>0F
     C25E 1501 
     C260 0060 
     C262 0E0F 
0091 C264 0305            BYTE 3,5,11,0,1,PTANK,>0A,>01
     C266 0B00 
     C268 0180 
     C26A 0A01 
0092               
0093               *      Switches
0094 C26C 0004     SWLST4 DATA SWLSE4-SWLST4               * Size
0095 C26E 0000            DATA 0
0096               SWLSE4
0097               
0098               *      Meta tiles triggered by switches
0099 C270 0000     MTSW41 DATA 0
**** **** ****     > bouncy.a99
3469                      COPY "level5.a99"
**** **** ****     > level5.a99
0001               ***************************************************************************
0002               *
0003               * Level 5 data
0004               *
0005               ***************************************************************************
0006               
0007               ****************************************
0008               * Map Data (meta tiles, packed in nybbles)
0009               ****************************************
0010 C272 7777     MTMAP5 DATA >7777,>7777,>7777
     C274 7777 
     C276 7777 
0011 C278 7000            DATA >7000,>0012,>1317
     C27A 0012 
     C27C 1317 
0012 C27E 7055            DATA >7055,>5011,>1117
     C280 5011 
     C282 1117 
0013 C284 7000            DATA >7000,>0011,>1017
     C286 0011 
     C288 1017 
0014 C28A 7111            DATA >7111,>1111,>0117
     C28C 1111 
     C28E 0117 
0015 C290 7110            DATA >7110,>1111,>3117
     C292 1111 
     C294 3117 
0016 C296 7111            DATA >7111,>1111,>1117
     C298 1111 
     C29A 1117 
0017 C29C 7100            DATA >7100,>1111,>1117
     C29E 1111 
     C2A0 1117 
0018 C2A2 7101            DATA >7101,>1111,>4117
     C2A4 1111 
     C2A6 4117 
0019 C2A8 7111            DATA >7111,>1111,>1117
     C2AA 1111 
     C2AC 1117 
0020 C2AE 7101            DATA >7101,>1111,>3117
     C2B0 1111 
     C2B2 3117 
0021 C2B4 7111            DATA >7111,>1111,>1117
     C2B6 1111 
     C2B8 1117 
0022 C2BA 7101            DATA >7101,>1111,>1017
     C2BC 1111 
     C2BE 1017 
0023 C2C0 7000            DATA >7000,>0000,>0007
     C2C2 0000 
     C2C4 0007 
0024 C2C6 7066            DATA >7066,>6666,>6607
     C2C8 6666 
     C2CA 6607 
0025 C2CC 7000            DATA >7000,>0000,>0007
     C2CE 0000 
     C2D0 0007 
0026 C2D2 7111            DATA >7111,>1111,>1117
     C2D4 1111 
     C2D6 1117 
0027 C2D8 7111            DATA >7111,>1111,>1017
     C2DA 1111 
     C2DC 1017 
0028 C2DE 7111            DATA >7111,>1010,>1117
     C2E0 1010 
     C2E2 1117 
0029 C2E4 7111            DATA >7111,>1111,>1117
     C2E6 1111 
     C2E8 1117 
0030 C2EA 7000            DATA >7000,>0011,>1117
     C2EC 0011 
     C2EE 1117 
0031 C2F0 7002            DATA >7002,>0001,>1117
     C2F2 0001 
     C2F4 1117 
0032 C2F6 7030            DATA >7030,>0001,>1117
     C2F8 0001 
     C2FA 1117 
0033 C2FC 7000            DATA >7000,>2000,>0017
     C2FE 2000 
     C300 0017 
0034 C302 7777            DATA >7777,>7701,>1117
     C304 7701 
     C306 1117 
0035 C308 7000            DATA >7000,>0001,>1117
     C30A 0001 
     C30C 1117 
0036 C30E 7111            DATA >7111,>1111,>1417
     C310 1111 
     C312 1417 
0037 C314 7111            DATA >7111,>1111,>1317
     C316 1111 
     C318 1317 
0038 C31A 7111            DATA >7111,>4111,>1017
     C31C 4111 
     C31E 1017 
0039 C320 7111            DATA >7111,>1111,>1117
     C322 1111 
     C324 1117 
0040 C326 7111            DATA >7111,>0111,>1137
     C328 0111 
     C32A 1137 
0041 C32C 7111            DATA >7111,>1111,>1107
     C32E 1111 
     C330 1107 
0042 C332 7101            DATA >7101,>0111,>1107
     C334 0111 
     C336 1107 
0043 C338 7111            DATA >7111,>1111,>1117
     C33A 1111 
     C33C 1117 
0044 C33E 7101            DATA >7101,>1111,>1317
     C340 1111 
     C342 1317 
0045 C344 7111            DATA >7111,>1111,>1017
     C346 1111 
     C348 1017 
0046 C34A 7000            DATA >7000,>1111,>0007
     C34C 1111 
     C34E 0007 
0047 C350 7070            DATA >7070,>1111,>0707
     C352 1111 
     C354 0707 
0048 C356 7200            DATA >7200,>1111,>1317
     C358 1111 
     C35A 1317 
0049 C35C 7111            DATA >7111,>1111,>1117
     C35E 1111 
     C360 1117 
0050 C362 7011            DATA >7011,>1111,>1017
     C364 1111 
     C366 1017 
0051 C368 7111            DATA >7111,>0011,>1017
     C36A 0011 
     C36C 1017 
0052 C36E 7111            DATA >7111,>0111,>1117
     C370 0111 
     C372 1117 
0053 C374 7400            DATA >7400,>0011,>1117
     C376 0011 
     C378 1117 
0054 C37A 7002            DATA >7002,>0011,>1237
     C37C 0011 
     C37E 1237 
0055 C380 7000            DATA >7000,>0011,>1337
     C382 0011 
     C384 1337 
0056 C386 7000            DATA >7000,>0011,>1337
     C388 0011 
     C38A 1337 
0057 C38C 7000            DATA >7000,>0011,>1337
     C38E 0011 
     C390 1337 
0058 C392 7011            DATA >7011,>1011,>1337
     C394 1011 
     C396 1337 
0059 C398 7111            DATA >7111,>1111,>1337
     C39A 1111 
     C39C 1337 
0060 C39E 7011            DATA >7011,>1111,>1117
     C3A0 1111 
     C3A2 1117 
0061 C3A4 7111            DATA >7111,>1111,>1117
     C3A6 1111 
     C3A8 1117 
0062 C3AA 7111            DATA >7111,>1111,>1147
     C3AC 1111 
     C3AE 1147 
0063 C3B0 7400            DATA >7400,>1111,>1107
     C3B2 1111 
     C3B4 1107 
0064 C3B6 7073            DATA >7073,>1111,>1117
     C3B8 1111 
     C3BA 1117 
0065 C3BC 7070            DATA >7070,>1111,>1117
     C3BE 1111 
     C3C0 1117 
0066 C3C2 7000            DATA >7000,>1111,>1117
     C3C4 1111 
     C3C6 1117 
0067 C3C8 7101            DATA >7101,>1121,>1117
     C3CA 1121 
     C3CC 1117 
0068 C3CE 7111            DATA >7111,>1101,>1117
     C3D0 1101 
     C3D2 1117 
0069 C3D4 7114            DATA >7114,>1111,>1117
     C3D6 1111 
     C3D8 1117 
0070 C3DA 7110            DATA >7110,>0200,>1117
     C3DC 0200 
     C3DE 1117 
0071 C3E0 7111            DATA >7111,>0000,>1117
     C3E2 0000 
     C3E4 1117 
0072 C3E6 7111            DATA >7111,>0000,>1117
     C3E8 0000 
     C3EA 1117 
0073 C3EC 7777            DATA >7777,>7777,>7777
     C3EE 7777 
     C3F0 7777 
0074               
0075               *      Enemy definition list
0076               
0077               * Enemy type (0: eol, 1: bounded, >1: not bounded)
0078               * X position in meta tiles
0079               * Y position in meta tiles
0080               * X velocity
0081               * Y velocity
0082               * Pattern number
0083               * Color 1st sprite layer
0084               * Color 2nd sprite layer
0085               
0086 C3F2 0005     EDLST5 DATA 5
0087 C3F4 0202            BYTE 2,>02,>32,1,0,PSCISS,>0E,>0F
     C3F6 3201 
     C3F8 0060 
     C3FA 0E0F 
0088 C3FC 0102            BYTE 1,>02,>2E,0,1,PDICE,>0F,>01
     C3FE 2E00 
     C400 0140 
     C402 0F01 
0089 C404 040B            BYTE 4,>0B,>17,-1,0,PKNIFE,>08,>0E
     C406 17FF 
     C408 00A0 
     C40A 080E 
0090 C40C 0103            BYTE 1,>03,>0F,1,0,PDICE,>0F,>01
     C40E 0F01 
     C410 0040 
     C412 0F01 
0091 C414 0201            BYTE 2,>01,>05,1,0,PSCISS,>0E,>0F
     C416 0501 
     C418 0060 
     C41A 0E0F 
0092               
0093               *      Switches
0094 C41C 0010     SWLST5 DATA SWLSE5-SWLST5               * Size
0095 C41E 0639            DATA >0639,MTTILE,MTSW51
     C420 0000 
     C422 C42C 
0096 C424 092C            DATA >092C,MTTILE,MTSW52
     C426 0000 
     C428 C436 
0097 C42A 0000            DATA 0
0098               SWLSE5
0099               
0100               *      Meta tiles triggered by switches
0101 C42C 0638     MTSW51 DATA >0638,>0737,>0938,>0A37,0
     C42E 0737 
     C430 0938 
     C432 0A37 
     C434 0000 
0102 C436 072C     MTSW52 DATA >072C,>0629,>0829,0
     C438 0629 
     C43A 0829 
     C43C 0000 
**** **** ****     > bouncy.a99
3470                      COPY "level6.a99"
**** **** ****     > level6.a99
0001               ***************************************************************************
0002               *
0003               * Level 6 data
0004               *
0005               ***************************************************************************
0006               
0007               ****************************************
0008               * Map Data (meta tiles, packed in nybbles)
0009               ****************************************
0010 C43E 6605     MTMAP6 DATA >6605,>5555,>0666
     C440 5555 
     C442 0666 
0011 C444 6700            DATA >6700,>3330,>0776
     C446 3330 
     C448 0776 
0012 C44A 6770            DATA >6770,>7770,>7776
     C44C 7770 
     C44E 7776 
0013 C450 6777            DATA >6777,>7777,>7776
     C452 7777 
     C454 7776 
0014 C456 6670            DATA >6670,>0073,>7776
     C458 0073 
     C45A 7776 
0015 C45C 6667            DATA >6667,>7777,>7776
     C45E 7777 
     C460 7776 
0016 C462 6677            DATA >6677,>7777,>7776
     C464 7777 
     C466 7776 
0017 C468 6774            DATA >6774,>7474,>7766
     C46A 7474 
     C46C 7766 
0018 C46E 6770            DATA >6770,>0000,>7766
     C470 0000 
     C472 7766 
0019 C474 6777            DATA >6777,>7777,>7776
     C476 7777 
     C478 7776 
0020 C47A 6777            DATA >6777,>0777,>7776
     C47C 0777 
     C47E 7776 
0021 C480 6770            DATA >6770,>7077,>7776
     C482 7077 
     C484 7776 
0022 C486 6770            DATA >6770,>0000,>7776
     C488 0000 
     C48A 7776 
0023 C48C 6677            DATA >6677,>7777,>7776
     C48E 7777 
     C490 7776 
0024 C492 6777            DATA >6777,>0000,>7776
     C494 0000 
     C496 7776 
0025 C498 6770            DATA >6770,>7377,>7776
     C49A 7377 
     C49C 7776 
0026 C49E 6777            DATA >6777,>0000,>7776
     C4A0 0000 
     C4A2 7776 
0027 C4A4 6777            DATA >6777,>7777,>7776
     C4A6 7777 
     C4A8 7776 
0028 C4AA 6770            DATA >6770,>7770,>7776
     C4AC 7770 
     C4AE 7776 
0029 C4B0 6770            DATA >6770,>0000,>7766
     C4B2 0000 
     C4B4 7766 
0030 C4B6 6777            DATA >6777,>7777,>7666
     C4B8 7777 
     C4BA 7666 
0031 C4BC 6770            DATA >6770,>7777,>7766
     C4BE 7777 
     C4C0 7766 
0032 C4C2 6770            DATA >6770,>0000,>7776
     C4C4 0000 
     C4C6 7776 
0033 C4C8 6677            DATA >6677,>7770,>7776
     C4CA 7770 
     C4CC 7776 
0034 C4CE 6677            DATA >6677,>7777,>7776
     C4D0 7777 
     C4D2 7776 
0035 C4D4 6774            DATA >6774,>7474,>7776
     C4D6 7474 
     C4D8 7776 
0036 C4DA 6770            DATA >6770,>0000,>7776
     C4DC 0000 
     C4DE 7776 
0037 C4E0 6777            DATA >6777,>7777,>7776
     C4E2 7777 
     C4E4 7776 
0038 C4E6 6777            DATA >6777,>7777,>7776
     C4E8 7777 
     C4EA 7776 
0039 C4EC 6774            DATA >6774,>0004,>7776
     C4EE 0004 
     C4F0 7776 
0040 C4F2 6770            DATA >6770,>7770,>7776
     C4F4 7770 
     C4F6 7776 
0041 C4F8 6770            DATA >6770,>0000,>7776
     C4FA 0000 
     C4FC 7776 
0042 C4FE 6777            DATA >6777,>7777,>7776
     C500 7777 
     C502 7776 
0043 C504 6770            DATA >6770,>7777,>7766
     C506 7777 
     C508 7766 
0044 C50A 6770            DATA >6770,>0000,>7666
     C50C 0000 
     C50E 7666 
0045 C510 6770            DATA >6770,>7777,>7666
     C512 7777 
     C514 7666 
0046 C516 6677            DATA >6677,>7777,>7662
     C518 7777 
     C51A 7662 
0047 C51C 6777            DATA >6777,>7777,>7766
     C51E 7777 
     C520 7766 
0048 C522 6774            DATA >6774,>7474,>7773
     C524 7474 
     C526 7773 
0049 C528 6770            DATA >6770,>0000,>7773
     C52A 0000 
     C52C 7773 
0050 C52E 6777            DATA >6777,>7777,>7773
     C530 7777 
     C532 7773 
0051 C534 6770            DATA >6770,>7770,>7773
     C536 7770 
     C538 7773 
0052 C53A 6770            DATA >6770,>0000,>7773
     C53C 0000 
     C53E 7773 
0053 C540 6777            DATA >6777,>7777,>7773
     C542 7777 
     C544 7773 
0054 C546 6777            DATA >6777,>0002,>7773
     C548 0002 
     C54A 7773 
0055 C54C 6770            DATA >6770,>7777,>7763
     C54E 7777 
     C550 7763 
0056 C552 6770            DATA >6770,>0000,>7763
     C554 0000 
     C556 7763 
0057 C558 6677            DATA >6677,>7777,>7773
     C55A 7777 
     C55C 7773 
0058 C55E 6670            DATA >6670,>0000,>7773
     C560 0000 
     C562 7773 
0059 C564 6777            DATA >6777,>7770,>7773
     C566 7770 
     C568 7773 
0060 C56A 6770            DATA >6770,>0000,>7773
     C56C 0000 
     C56E 7773 
0061 C570 6777            DATA >6777,>7777,>7773
     C572 7777 
     C574 7773 
0062 C576 6774            DATA >6774,>0004,>7763
     C578 0004 
     C57A 7763 
0063 C57C 6770            DATA >6770,>7770,>7663
     C57E 7770 
     C580 7663 
0064 C582 6670            DATA >6670,>0000,>7766
     C584 0000 
     C586 7766 
0065 C588 6667            DATA >6667,>7777,>7776
     C58A 7777 
     C58C 7776 
0066 C58E 6677            DATA >6677,>0707,>7776
     C590 0707 
     C592 7776 
0067 C594 6770            DATA >6770,>7270,>7776
     C596 7270 
     C598 7776 
0068 C59A 6770            DATA >6770,>0000,>7766
     C59C 0000 
     C59E 7766 
0069 C5A0 6777            DATA >6777,>7777,>7766
     C5A2 7777 
     C5A4 7766 
0070 C5A6 6700            DATA >6700,>0000,>0776
     C5A8 0000 
     C5AA 0776 
0071 C5AC 6700            DATA >6700,>0000,>0776
     C5AE 0000 
     C5B0 0776 
0072 C5B2 6777            DATA >6777,>7767,>7776
     C5B4 7767 
     C5B6 7776 
0073 C5B8 6666            DATA >6666,>6666,>6666
     C5BA 6666 
     C5BC 6666 
0074               
0075               *      Enemy definition list
0076               
0077               * Enemy type (0: eol, 1: bounded, >1: not bounded)
0078               * X position in meta tiles
0079               * Y position in meta tiles
0080               * X velocity
0081               * Y velocity
0082               * Pattern number
0083               * Color 1st sprite layer
0084               * Color 2nd sprite layer
0085               
0086 C5BE 0008     EDLST6 DATA 8
0087 C5C0 0107            BYTE 1,>07,>36,-1,0,PDICE,>0F,>01
     C5C2 36FF 
     C5C4 0040 
     C5C6 0F01 
0088 C5C8 0201            BYTE 2,>01,>2A,1,0,PSCISS,>0E,>0F
     C5CA 2A01 
     C5CC 0060 
     C5CE 0E0F 
0089 C5D0 030B            BYTE 3,>0B,>25,0,1,PTANK,>0A,>01
     C5D2 2500 
     C5D4 0180 
     C5D6 0A01 
0090 C5D8 0103            BYTE 1,>03,>1E,0,1,PDICE,>0F,>01
     C5DA 1E00 
     C5DC 0140 
     C5DE 0F01 
0091 C5E0 0201            BYTE 2,>01,>13,1,0,PSCISS,>0E,>0F
     C5E2 1301 
     C5E4 0060 
     C5E6 0E0F 
0092 C5E8 0103            BYTE 1,>03,>0B,0,1,PDICE,>0F,>01
     C5EA 0B00 
     C5EC 0140 
     C5EE 0F01 
0093 C5F0 0307            BYTE 3,>07,>02,0,1,PTANK,>0A,>01
     C5F2 0200 
     C5F4 0180 
     C5F6 0A01 
0094 C5F8 0303            BYTE 3,>03,>01,0,1,PTANK,>0A,>01
     C5FA 0100 
     C5FC 0180 
     C5FE 0A01 
0095               
0096               *      Switches
0097 C600 0010     SWLST6 DATA SWLSE6-SWLST6               * Size
0098 C602 0539            DATA >0539,MTTILE,MTSW61
     C604 0000 
     C606 C610 
0099 C608 0B24            DATA >0B24,MTTILE,MTSW62
     C60A 0000 
     C60C C614 
0100 C60E 0000            DATA 0
0101               SWLSE6
0102               
0103               *      Meta tiles triggered by switches
0104 C610 0935     MTSW61 DATA >0935,0
     C612 0000 
0105 C614 0922     MTSW62 DATA >0922,>0A22,0
     C616 0A22 
     C618 0000 
**** **** ****     > bouncy.a99
3471                      COPY "level7.a99"
**** **** ****     > level7.a99
0001               ***************************************************************************
0002               *
0003               * Level 7 data
0004               *
0005               ***************************************************************************
0006               
0007               ****************************************
0008               * Map Data (meta tiles, packed in nybbles)
0009               ****************************************
0010 C61A 6666     MTMAP7 DATA >6666,>0555,>0666
     C61C 0555 
     C61E 0666 
0011 C620 6666            DATA >6666,>0000,>0666
     C622 0000 
     C624 0666 
0012 C626 6666            DATA >6666,>6666,>6666
     C628 6666 
     C62A 6666 
0013 C62C 6666            DATA >6666,>6646,>6666
     C62E 6646 
     C630 6666 
0014 C632 2606            DATA >2606,>0600,>0666
     C634 0600 
     C636 0666 
0015 C638 6666            DATA >6666,>6666,>6666
     C63A 6666 
     C63C 6666 
0016 C63E 6666            DATA >6666,>6666,>6066
     C640 6666 
     C642 6066 
0017 C644 6666            DATA >6666,>6646,>6666
     C646 6646 
     C648 6666 
0018 C64A 6006            DATA >6006,>0666,>6066
     C64C 0666 
     C64E 6066 
0019 C650 6066            DATA >6066,>6666,>6666
     C652 6666 
     C654 6666 
0020 C656 6666            DATA >6666,>6666,>0000
     C658 6666 
     C65A 0000 
0021 C65C 6666            DATA >6666,>6666,>0330
     C65E 6666 
     C660 0330 
0022 C662 0406            DATA >0406,>6666,>0000
     C664 6666 
     C666 0000 
0023 C668 3036            DATA >3036,>6666,>0020
     C66A 6666 
     C66C 0020 
0024 C66E 3306            DATA >3306,>6666,>0000
     C670 6666 
     C672 0000 
0025 C674 0306            DATA >0306,>6666,>6666
     C676 6666 
     C678 6666 
0026 C67A 6066            DATA >6066,>6066,>6666
     C67C 6066 
     C67E 6666 
0027 C680 6666            DATA >6666,>6606,>0666
     C682 6606 
     C684 0666 
0028 C686 6666            DATA >6666,>6666,>6666
     C688 6666 
     C68A 6666 
0029 C68C 6626            DATA >6626,>6446,>6666
     C68E 6446 
     C690 6666 
0030 C692 6600            DATA >6600,>6006,>6666
     C694 6006 
     C696 6666 
0031 C698 6666            DATA >6666,>6666,>6666
     C69A 6666 
     C69C 6666 
0032 C69E 6660            DATA >6660,>6666,>6666
     C6A0 6666 
     C6A2 6666 
0033 C6A4 6666            DATA >6666,>6006,>6666
     C6A6 6006 
     C6A8 6666 
0034 C6AA 6666            DATA >6666,>0000,>6666
     C6AC 0000 
     C6AE 6666 
0035 C6B0 6660            DATA >6660,>0000,>0666
     C6B2 0000 
     C6B4 0666 
0036 C6B6 6660            DATA >6660,>6660,>6666
     C6B8 6660 
     C6BA 6666 
0037 C6BC 6766            DATA >6766,>6766,>7666
     C6BE 6766 
     C6C0 7666 
0038 C6C2 6776            DATA >6776,>7776,>7767
     C6C4 7776 
     C6C6 7767 
0039 C6C8 7777            DATA >7777,>7777,>7777
     C6CA 7777 
     C6CC 7777 
0040 C6CE 7770            DATA >7770,>7770,>7707
     C6D0 7770 
     C6D2 7707 
0041 C6D4 7704            DATA >7704,>0704,>0777
     C6D6 0704 
     C6D8 0777 
0042 C6DA 7770            DATA >7770,>7770,>7077
     C6DC 7770 
     C6DE 7077 
0043 C6E0 7707            DATA >7707,>0770,>7777
     C6E2 0770 
     C6E4 7777 
0044 C6E6 7777            DATA >7777,>7770,>7777
     C6E8 7770 
     C6EA 7777 
0045 C6EC 7077            DATA >7077,>0777,>7777
     C6EE 0777 
     C6F0 7777 
0046 C6F2 7077            DATA >7077,>7277,>0777
     C6F4 7277 
     C6F6 0777 
0047 C6F8 0307            DATA >0307,>7777,>7777
     C6FA 7777 
     C6FC 7777 
0048 C6FE 0307            DATA >0307,>7777,>0777
     C700 7777 
     C702 0777 
0049 C704 0007            DATA >0007,>7770,>0007
     C706 7770 
     C708 0007 
0050 C70A 7777            DATA >7777,>7770,>2007
     C70C 7770 
     C70E 2007 
0051 C710 7077            DATA >7077,>7770,>0007
     C712 7770 
     C714 0007 
0052 C716 7777            DATA >7777,>7777,>7777
     C718 7777 
     C71A 7777 
0053 C71C 7707            DATA >7707,>7777,>0777
     C71E 7777 
     C720 0777 
0054 C722 7777            DATA >7777,>7777,>7777
     C724 7777 
     C726 7777 
0055 C728 7770            DATA >7770,>7777,>0777
     C72A 7777 
     C72C 0777 
0056 C72E 7777            DATA >7777,>7777,>7777
     C730 7777 
     C732 7777 
0057 C734 7770            DATA >7770,>0000,>0777
     C736 0000 
     C738 0777 
0058 C73A 7770            DATA >7770,>0000,>0777
     C73C 0000 
     C73E 0777 
0059 C740 7770            DATA >7770,>0200,>0777
     C742 0200 
     C744 0777 
0060 C746 7770            DATA >7770,>0000,>0777
     C748 0000 
     C74A 0777 
0061 C74C 7770            DATA >7770,>0000,>0777
     C74E 0000 
     C750 0777 
0062 C752 7777            DATA >7777,>7077,>7777
     C754 7077 
     C756 7777 
0063 C758 7717            DATA >7717,>7717,>7777
     C75A 7717 
     C75C 7777 
0064 C75E 7111            DATA >7111,>7101,>7171
     C760 7101 
     C762 7171 
0065 C764 1111            DATA >1111,>1111,>1111
     C766 1111 
     C768 1111 
0066 C76A 1111            DATA >1111,>1111,>1011
     C76C 1111 
     C76E 1011 
0067 C770 1111            DATA >1111,>1141,>0201
     C772 1141 
     C774 0201 
0068 C776 0001            DATA >0001,>1101,>0031
     C778 1101 
     C77A 0031 
0069 C77C 2701            DATA >2701,>0011,>0001
     C77E 0011 
     C780 0001 
0070 C782 0001            DATA >0001,>1101,>1111
     C784 1101 
     C786 1111 
0071 C788 1111            DATA >1111,>1001,>1111
     C78A 1001 
     C78C 1111 
0072 C78E 1111            DATA >1111,>0000,>1111
     C790 0000 
     C792 1111 
0073 C794 1110            DATA >1110,>0660,>0111
     C796 0660 
     C798 0111 
0074               
0075               *      Enemy definition list
0076               
0077               * Enemy type (0: eol, 1: bounded, >1: not bounded)
0078               * X position in meta tiles
0079               * Y position in meta tiles
0080               * X velocity
0081               * Y velocity
0082               * Pattern number
0083               * Color 1st sprite layer
0084               * Color 2nd sprite layer
0085               
0086 C79A 0006     EDLST7 DATA 6
0087 C79C 0108            BYTE 1,>08,>39,0,1,PDICE,>0F,>01
     C79E 3900 
     C7A0 0140 
     C7A2 0F01 
0088 C7A4 0201            BYTE 2,>01,>38,1,0,PSCISS,>0E,>0F
     C7A6 3801 
     C7A8 0060 
     C7AA 0E0F 
0089 C7AC 0103            BYTE 1,>03,>2F,1,0,PDICE,>0F,>01
     C7AE 2F01 
     C7B0 0040 
     C7B2 0F01 
0090 C7B4 040B            BYTE 4,>0B,>24,-1,0,PKNIFE,>08,>0E
     C7B6 24FF 
     C7B8 00A0 
     C7BA 080E 
0091 C7BC 0108            BYTE 1,>08,>0B,0,1,PDICE,>0F,>01
     C7BE 0B00 
     C7C0 0140 
     C7C2 0F01 
0092 C7C4 0201            BYTE 2,>01,>04,1,0,PSCISS,>0E,>0F
     C7C6 0401 
     C7C8 0060 
     C7CA 0E0F 
0093               
0094               *      Switches
0095 C7CC 0010     SWLST7 DATA SWLSE7-SWLST7               * Size
0096 C7CE 0524            DATA >0524,MTTILE,MTSW71
     C7D0 0000 
     C7D2 C7DC 
0097 C7D4 0213            DATA >0213,MTTILE,MTSW72
     C7D6 0000 
     C7D8 C7E2 
0098 C7DA 0000            DATA 0
0099               SWLSE7
0100               
0101               *      Meta tiles triggered by switches
0102 C7DC 031C     MTSW71 DATA >031C,>071C,0
     C7DE 071C 
     C7E0 0000 
0103 C7E2 0013     MTSW72 DATA >0013,>0012,0
     C7E4 0012 
     C7E6 0000 
**** **** ****     > bouncy.a99
3472                      COPY "level8.a99"
**** **** ****     > level8.a99
0001               ***************************************************************************
0002               *
0003               * Level 8 data
0004               *
0005               ***************************************************************************
0006               
0007               ****************************************
0008               * Map Data (meta tiles, packed in nybbles)
0009               ****************************************
0010 C7E8 7777     MTMAP8 DATA >7777,>7777,>7777
     C7EA 7777 
     C7EC 7777 
0011 C7EE 3373            DATA >3373,>3277,>5033
     C7F0 3277 
     C7F2 5033 
0012 C7F4 3777            DATA >3777,>7777,>7773
     C7F6 7777 
     C7F8 7773 
0013 C7FA 3777            DATA >3777,>7777,>7777
     C7FC 7777 
     C7FE 7777 
0014 C800 3777            DATA >3777,>7737,>7773
     C802 7737 
     C804 7773 
0015 C806 3773            DATA >3773,>7333,>3733
     C808 7333 
     C80A 3733 
0016 C80C 3773            DATA >3773,>7777,>7777
     C80E 7777 
     C810 7777 
0017 C812 7773            DATA >7773,>7777,>7777
     C814 7777 
     C816 7777 
0018 C818 3773            DATA >3773,>3233,>7773
     C81A 3233 
     C81C 7773 
0019 C81E 3773            DATA >3773,>7773,>7773
     C820 7773 
     C822 7773 
0020 C824 3233            DATA >3233,>7773,>3733
     C826 7773 
     C828 3733 
0021 C82A 3777            DATA >3777,>7777,>7773
     C82C 7777 
     C82E 7773 
0022 C830 3777            DATA >3777,>7773,>7773
     C832 7773 
     C834 7773 
0023 C836 3333            DATA >3333,>0773,>7777
     C838 0773 
     C83A 7777 
0024 C83C 7777            DATA >7777,>0773,>3773
     C83E 0773 
     C840 3773 
0025 C842 7777            DATA >7777,>7777,>7773
     C844 7777 
     C846 7773 
0026 C848 3777            DATA >3777,>7777,>7777
     C84A 7777 
     C84C 7777 
0027 C84E 3377            DATA >3377,>7777,>7777
     C850 7777 
     C852 7777 
0028 C854 3777            DATA >3777,>7733,>3777
     C856 7733 
     C858 3777 
0029 C85A 3777            DATA >3777,>7737,>3774
     C85C 7737 
     C85E 3774 
0030 C860 3332            DATA >3332,>3337,>3770
     C862 3337 
     C864 3770 
0031 C866 3777            DATA >3777,>7377,>3333
     C868 7377 
     C86A 3333 
0032 C86C 7777            DATA >7777,>7377,>7377
     C86E 7377 
     C870 7377 
0033 C872 3337            DATA >3337,>7337,>3377
     C874 7337 
     C876 3377 
0034 C878 7737            DATA >7737,>7777,>7777
     C87A 7777 
     C87C 7777 
0035 C87E 7737            DATA >7737,>7777,>7773
     C880 7777 
     C882 7773 
0036 C884 3333            DATA >3333,>7333,>2333
     C886 7333 
     C888 2333 
0037 C88A 7777            DATA >7777,>7737,>7777
     C88C 7737 
     C88E 7777 
0038 C890 7777            DATA >7777,>7777,>7377
     C892 7777 
     C894 7377 
0039 C896 3323            DATA >3323,>3337,>7377
     C898 3337 
     C89A 7377 
0040 C89C 3777            DATA >3777,>7777,>7333
     C89E 7777 
     C8A0 7333 
0041 C8A2 3777            DATA >3777,>7777,>7777
     C8A4 7777 
     C8A6 7777 
0042 C8A8 7777            DATA >7777,>3777,>7777
     C8AA 3777 
     C8AC 7777 
0043 C8AE 3777            DATA >3777,>3333,>2337
     C8B0 3333 
     C8B2 2337 
0044 C8B4 3777            DATA >3777,>3777,>7777
     C8B6 3777 
     C8B8 7777 
0045 C8BA 3233            DATA >3233,>3777,>7733
     C8BC 3777 
     C8BE 7733 
0046 C8C0 3777            DATA >3777,>3333,>7737
     C8C2 3333 
     C8C4 7737 
0047 C8C6 7777            DATA >7777,>7773,>7737
     C8C8 7773 
     C8CA 7737 
0048 C8CC 7777            DATA >7777,>7777,>7737
     C8CE 7777 
     C8D0 7737 
0049 C8D2 7323            DATA >7323,>3773,>7777
     C8D4 3773 
     C8D6 7777 
0050 C8D8 7377            DATA >7377,>3333,>7777
     C8DA 3333 
     C8DC 7777 
0051 C8DE 7377            DATA >7377,>7777,>7737
     C8E0 7777 
     C8E2 7737 
0052 C8E4 3377            DATA >3377,>3777,>7737
     C8E6 3777 
     C8E8 7737 
0053 C8EA 3777            DATA >3777,>3332,>3337
     C8EC 3332 
     C8EE 3337 
0054 C8F0 7777            DATA >7777,>7777,>7732
     C8F2 7777 
     C8F4 7732 
0055 C8F6 7777            DATA >7777,>7777,>7777
     C8F8 7777 
     C8FA 7777 
0056 C8FC 3373            DATA >3373,>3377,>3337
     C8FE 3377 
     C900 3337 
0057 C902 3777            DATA >3777,>7377,>7737
     C904 7377 
     C906 7737 
0058 C908 3777            DATA >3777,>7377,>7733
     C90A 7377 
     C90C 7733 
0059 C90E 3777            DATA >3777,>7377,>7773
     C910 7377 
     C912 7773 
0060 C914 3237            DATA >3237,>7323,>3777
     C916 7323 
     C918 3777 
0061 C91A 7737            DATA >7737,>7777,>7773
     C91C 7777 
     C91E 7773 
0062 C920 7777            DATA >7777,>7777,>7773
     C922 7777 
     C924 7773 
0063 C926 7733            DATA >7733,>3337,>7333
     C928 3337 
     C92A 7333 
0064 C92C 7777            DATA >7777,>7777,>7777
     C92E 7777 
     C930 7777 
0065 C932 3777            DATA >3777,>7737,>7377
     C934 7737 
     C936 7377 
0066 C938 3333            DATA >3333,>2337,>3333
     C93A 2337 
     C93C 3333 
0067 C93E 7773            DATA >7773,>7777,>7773
     C940 7777 
     C942 7773 
0068 C944 7777            DATA >7777,>7777,>7777
     C946 7777 
     C948 7777 
0069 C94A 3233            DATA >3233,>7733,>7377
     C94C 7733 
     C94E 7377 
0070 C950 3773            DATA >3773,>7707,>7377
     C952 7707 
     C954 7377 
0071 C956 3773            DATA >3773,>3337,>7377
     C958 3337 
     C95A 7377 
0072 C95C 3777            DATA >3777,>7737,>7332
     C95E 7737 
     C960 7332 
0073 C962 7773            DATA >7773,>3337,>7777
     C964 3337 
     C966 7777 
0074               
0075               *      Enemy definition list
0076               
0077               *      Enemy definition list
0078               
0079               * Enemy type (0: eol, 1: bounded, >1: not bounded)
0080               * X position in meta tiles
0081               * Y position in meta tiles
0082               * X velocity
0083               * Y velocity
0084               * Pattern number
0085               * Color 1st sprite layer
0086               * Color 2nd sprite layer
0087               
0088 C968 0000     EDLST8 DATA 0
0089               
0090               *      Switches
0091 C96A 0010     SWLST8 DATA SWLSE7-SWLST7               * Size
0092 C96C 0000            DATA 0
0093               SWLSE8
0094               
0095               *      Meta tiles triggered by switches
0096 C96E 0000     MTSW81 DATA 0
**** **** ****     > bouncy.a99
3473 C970 0CA4     MUSIC  BCOPY "monty-short.vgm.spf"
     C972 0CBC 
     C974 1000 
     C976 0B0D 
     C978 0B00 
     C97A 1105 
     C97C 1100 
     C97E 0B0D 
     C980 0B00 
     C982 1105 
     C984 1190 
     C986 018D 
     C988 0110 
     C98A 4249 
     C98C 4B49 
     C98E 4250 
     C990 5350 
     C992 4249 
     C994 4B49 
     C996 4250 
     C998 5350 
     C99A 9016 
     C99C 8D16 
     C99E 9001 
     C9A0 9001 
     C9A2 8D01 
     C9A4 1082 
     C9A6 8384 
     C9A8 8382 
     C9AA 8586 
     C9AC 8582 
     C9AE 8384 
     C9B0 8382 
     C9B2 8586 
     C9B4 8590 
     C9B6 318D 
     C9B8 3190 
     C9BA 0190 
     C9BC 018D 
     C9BE 0190 
     C9C0 1690 
     C9C2 168D 
     C9C4 1690 
     C9C6 0190 
     C9C8 018D 
     C9CA 0110 
     C9CC 8722 
     C9CE 2622 
     C9D0 8728 
     C9D2 2328 
     C9D4 8722 
     C9D6 2622 
     C9D8 8728 
     C9DA 2328 
     C9DC 9058 
     C9DE 8D58 
     C9E0 3F88 
     C9E2 7F8D 
     C9E4 917F 
     C9E6 6D91 
     C9E8 9496 
     C9EA 686A 
     C9EC 9798 
     C9EE 7073 
     C9F0 769C 
     C9F2 7981 
     C9F4 9E9F 
     C9F6 A0A2 
     C9F8 A3A4 
     C9FA A5A7 
     C9FC A9AA 
     C9FE ACAD 
     CA00 AEAF 
     CA02 B0B2 
     CA04 9C94 
     CA06 B65D 
     CA08 94BA 
     CA0A 5DBB 
     CA0C BC44 
     CA0E 433C 
     CA10 3A39 
     CA12 3B34 
     CA14 302E 
     CA16 C029 
     CA18 2DC2 
     CA1A 2322 
     CA1C 1D1C 
     CA1E 1A18 
     CA20 3F19 
     CA22 1B0F 
     CA24 0E0A 
     CA26 0CC7 
     CA28 87C3 
     CA2A 2BC8 
     CA2C C92A 
     CA2E 2C31 
     CA30 3638 
     CA32 3B39 
     CA34 3F3D 
     CA36 3EBE 
     CA38 BDBC 
     CA3A BBCD 
     CA3C 4ECE 
     CA3E 5759 
     CA40 5A5F 
     CA42 5C5E 
     CA44 D062 
     CA46 D194 
     CA48 9668 
     CA4A D26B 
     CA4C 6D99 
     CA4E D391 
     CA50 7475 
     CA52 787B 
     CA54 817E 
     CA56 D58D 
     CA58 D694 
     CA5A 3D45 
     CA5C 3D87 
     CA5E 3D45 
     CA60 1B3D 
     CA62 943D 
     CA64 453D 
     CA66 8725 
     CA68 87DF 
     CA6A 16C7 
     CA6C 16DF 
     CA6E 8742 
     CA70 E042 
     CA72 00C7 
     CA74 0094 
     CA76 3D45 
     CA78 3D87 
     CA7A 3D45 
     CA7C 93ED 
     CA7E 1216 
     CA80 C716 
     CA82 DF00 
     CA84 87BB 
     CA86 4CBB 
     CA88 48BB 
     CA8A 4CBB 
     CA8C 48BB 
     CA8E 4CBB 
     CA90 48CC 
     CA92 0115 
     CA94 CC01 
     CA96 15CC 
     CA98 0115 
     CA9A 0DBB 
     CA9C 4CBB 
     CA9E 48BB 
     CAA0 353D 
     CAA2 353D 
     CAA4 352A 
     CAA6 353D 
     CAA8 CC01 
     CAAA 15CC 
     CAAC 0115 
     CAAE CC01 
     CAB0 15CC 
     CAB2 0115 
     CAB4 CC01 
     CAB6 2B0D 
     CAB8 BB30 
     CABA CB30 
     CABC CA30 
     CABE CB30 
     CAC0 CA30 
     CAC2 CB30 
     CAC4 CACC 
     CAC6 0149 
     CAC8 CC01 
     CACA 49CC 
     CACC 0149 
     CACE 0D30 
     CAD0 CB30 
     CAD2 CA30 
     CAD4 8725 
     CAD6 8725 
     CAD8 87DF 
     CADA 8725 
     CADC CC01 
     CADE 49CC 
     CAE0 0149 
     CAE2 CC01 
     CAE4 49CC 
     CAE6 0149 
     CAE8 CC01 
     CAEA 5F20 
     CAEC 3010 
     CAEE C130 
     CAF0 10C1 
     CAF2 3010 
     CAF4 8700 
     CAF6 8287 
     CAF8 0082 
     CAFA 8700 
     CAFC 25B7 
     CAFE 8A25 
     CB00 B78A 
     CB02 25B7 
     CB04 8700 
     CB06 8287 
     CB08 0082 
     CB0A 8700 
     CB0C D801 
     CB0E 7C28 
     CB10 3010 
     CB12 C130 
     CB14 10C1 
     CB16 3010 
     CB18 5125 
     CB1A 1051 
     CB1C 2510 
     CB1E 5125 
     CB20 3DDF 
     CB22 003D 
     CB24 DF00 
     CB26 3DDF 
     CB28 451C 
     CB2A B745 
     CB2C 1CB7 
     CB2E 451C 
     CB30 3DDF 
     CB32 003D 
     CB34 DF00 
     CB36 3DDF 
     CB38 D801 
     CB3A A8D0 
     CB3C 01A8 
     CB3E 202A 
     CB40 C7E0 
     CB42 2AC7 
     CB44 E02A 
     CB46 C730 
     CB48 10C1 
     CB4A 3010 
     CB4C C130 
     CB4E 102A 
     CB50 C7E0 
     CB52 2AC7 
     CB54 E02A 
     CB56 C73D 
     CB58 DF00 
     CB5A 3DDF 
     CB5C 003D 
     CB5E DFD0 
     CB60 01CF 
     CB62 3F3D 
     CB64 DF00 
     CB66 3DDF 
     CB68 003D 
     CB6A DFC7 
     CB6C 82E5 
     CB6E C782 
     CB70 E5C7 
     CB72 8210 
     CB74 8AB5 
     CB76 108A 
     CB78 B510 
     CB7A 8ADF 
     CB7C C1E6 
     CB7E DFC1 
     CB80 E6DF 
     CB82 C130 
     CB84 10C1 
     CB86 3010 
     CB88 C130 
     CB8A 10BB 
     CB8C 87C7 
     CB8E BB87 
     CB90 C7BB 
     CB92 8751 
     CB94 2510 
     CB96 5125 
     CB98 1051 
     CB9A 255D 
     CB9C 30DF 
     CB9E 5D30 
     CBA0 DF5D 
     CBA2 0930 
     CBA4 9151 
     CBA6 3091 
     CBA8 5130 
     CBAA 9151 
     CBAC E001 
     CBAE 7CD8 
     CBB0 017C 
     CBB2 E801 
     CBB4 A0D8 
     CBB6 01A8 
     CBB8 D001 
     CBBA A8E0 
     CBBC 01CF 
     CBBE D001 
     CBC0 CF08 
     CBC2 3DDF 
     CBC4 003D 
     CBC6 DF00 
     CBC8 3DDF 
     CBCA E001 
     CBCC 7C08 
     CBCE 3010 
     CBD0 C130 
     CBD2 10C1 
     CBD4 3010 
     CBD6 D001 
     CBD8 8C0D 
     CBDA 16E0 
     CBDC E716 
     CBDE E0E7 
     CBE0 16E0 
     CBE2 0042 
     CBE4 00B7 
     CBE6 0014 
     CBE8 0102 
     CBEA 0107 
     CBEC 0102 
     CBEE 0107 
     CBF0 0102 
     CBF2 0107 
     CBF4 0102 
     CBF6 0107 
     CBF8 0102 
     CBFA 0107 
     CBFC 9401 
     CBFE 9401 
     CC00 9401 
     CC02 9401 
     CC04 9401 
     CC06 9401 
     CC08 9401 
     CC0A 9401 
     CC0C 9401 
     CC0E 9401 
     CC10 9401 
     CC12 9401 
     CC14 9401 
     CC16 9401 
     CC18 9401 
     CC1A 9401 
     CC1C 9401 
     CC1E 9401 
     CC20 3F01 
     CC22 0201 
     CC24 0701 
     CC26 898C 
     CC28 8E92 
     CC2A 8C93 
     CC2C 9272 
     CC2E 9569 
     CC30 686A 
     CC32 9799 
     CC34 719A 
     CC36 9B9D 
     CC38 7B7C 
     CC3A 9E9F 
     CC3C A1A2 
     CC3E A3A4 
     CC40 A6A8 
     CC42 88AB 
     CC44 ACAD 
     CC46 AEAF 
     CC48 B189 
     CC4A B39D 
     CC4C 93B9 
     CC4E 9D95 
     CC50 B95C 
     CC52 4D4A 
     CC54 BDBE 
     CC56 403A 
     CC58 3735 
     CC5A 3836 
     CC5C 312F 
     CC5E 2A27 
     CC60 3F2B 
     CC62 C387 
     CC64 1F21 
     CC66 1E20 
     CC68 1714 
     CC6A 1213 
     CC6C 1008 
     CC6E 041B 
     CC70 2824 
     CC72 252D 
     CC74 292A 
     CC76 2FCA 
     CC78 CB33 
     CC7A 3537 
     CC7C 3ACC 
     CC7E 3E41 
     CC80 474A 
     CC82 4D4F 
     CC84 4E55 
     CC86 5658 
     CC88 5A5F 
     CC8A CF60 
     CC8C D064 
     CC8E D195 
     CC90 9668 
     CC92 D26B 
     CC94 6C6E 
     CC96 7072 
     CC98 7477 
     CC9A D47B 
     CC9C 7C9E 
     CC9E D592 
     CCA0 1CD7 
     CCA2 B27F 
     CCA4 8D7F 
     CCA6 947F 
     CCA8 8D7F 
     CCAA B27F 
     CCAC 8D7F 
     CCAE 94B6 
     CCB0 945D 
     CCB2 BABB 
     CCB4 BA5D 
     CCB6 9435 
     CCB8 2A35 
     CCBA 3DBB 
     CCBC 3D9A 
     CCBE BB1A 
     CCC0 BABB 
     CCC2 BA5D 
     CCC4 3D94 
     CCC6 4D52 
     CCC8 4DE2 
     CCCA 4D52 
     CCCC 4DE2 
     CCCE 4D52 
     CCD0 4DE2 
     CCD2 4D52 
     CCD4 4DE2 
     CCD6 4D52 
     CCD8 4DE2 
     CCDA 94DF 
     CCDC 154D 
     CCDE 524D 
     CCE0 E24D 
     CCE2 524D 
     CCE4 E24D 
     CCE6 524D 
     CCE8 E24D 
     CCEA E1CC 
     CCEC E1CC 
     CCEE E1C0 
     CCF0 E1CC 
     CCF2 94DF 
     CCF4 94DF 
     CCF6 94F6 
     CCF8 154D 
     CCFA 3632 
     CCFC 36E3 
     CCFE 3632 
     CD00 36E3 
     CD02 3632 
     CD04 36E3 
     CD06 3632 
     CD08 36E3 
     CD0A 3632 
     CD0C 36E3 
     CD0E D403 
     CD10 8A15 
     CD12 3632 
     CD14 36E3 
     CD16 3632 
     CD18 36E3 
     CD1A 3632 
     CD1C 36E3 
     CD1E 3628 
     CD20 C828 
     CD22 C828 
     CD24 1828 
     CD26 C8D4 
     CD28 038A 
     CD2A D403 
     CD2C 8AD4 
     CD2E 03A2 
     CD30 2136 
     CD32 9194 
     CD34 B694 
     CD36 9194 
     CD38 B691 
     CD3A A57F 
     CD3C 8D7F 
     CD3E A57F 
     CD40 8DA5 
     CD42 7F6D 
     CD44 916D 
     CD46 7F6D 
     CD48 917F 
     CD4A BB51 
     CD4C 5D91 
     CD4E D8A5 
     CD50 D9DD 
     CD52 D803 
     CD54 C20D 
     CD56 3087 
     CD58 2587 
     CD5A 3025 
     CD5C 8716 
     CD5E CCE1 
     CD60 CC44 
     CD62 CC3F 
     CD64 0003 
     CD66 0405 
     CD68 0608 
     CD6A 0906 
     CD6C 0A03 
     CD6E 0C0E 
     CD70 060A 
     CD72 0F06 
     CD74 1012 
     CD76 0C13 
     CD78 140A 
     CD7A 0F15 
     CD7C 1016 
     CD7E 170E 
     CD80 1418 
     CD82 0F19 
     CD84 1A1B 
     CD86 181C 
     CD88 151A 
     CD8A 1D17 
     CD8C 1E1F 
     CD8E 2021 
     CD90 221A 
     CD92 1F23 
     CD94 1C22 
     CD96 241D 
     CD98 2325 
     CD9A 2624 
     CD9C 2728 
     CD9E 2529 
     CDA0 2427 
     CDA2 2A3F 
     CDA4 2B29 
     CDA6 2C2D 
     CDA8 2A2E 
     CDAA 292F 
     CDAC 302A 
     CDAE 3132 
     CDB0 2C30 
     CDB2 3331 
     CDB4 3435 
     CDB6 3633 
     CDB8 3738 
     CDBA 393A 
     CDBC 3B3A 
     CDBE 3C39 
     CDC0 3D3E 
     CDC2 3F40 
     CDC4 413D 
     CDC6 4344 
     CDC8 4045 
     CDCA 4643 
     CDCC 4748 
     CDCE 444A 
     CDD0 4C46 
     CDD2 4D4E 
     CDD4 484F 
     CDD6 5152 
     CDD8 4E54 
     CDDA 4E55 
     CDDC 5651 
     CDDE 5758 
     CDE0 5459 
     CDE2 5A3F 
     CDE4 565A 
     CDE6 5B5A 
     CDE8 5B5C 
     CDEA 5B5D 
     CDEC 5E5F 
     CDEE 5E60 
     CDF0 6160 
     CDF2 6260 
     CDF4 6364 
     CDF6 6364 
     CDF8 6564 
     CDFA 6566 
     CDFC 6566 
     CDFE 6766 
     CE00 6768 
     CE02 6968 
     CE04 6A68 
     CE06 6A6B 
     CE08 6A6B 
     CE0A 6C6B 
     CE0C 6D6E 
     CE0E 6D6F 
     CE10 706F 
     CE12 7172 
     CE14 7173 
     CE16 7473 
     CE18 7475 
     CE1A 7677 
     CE1C 7877 
     CE1E 7879 
     CE20 7A7B 
     CE22 7C0F 
     CE24 7D7C 
     CE26 7E7F 
     CE28 807F 
     CE2A 817F 
     CE2C 807F 
     CE2E 817F 
     CE30 807F 
     CE32 818C 
     CE34 C48C 
     CE36 C48C 
     CE38 C48C 
     CE3A C48C 
     CE3C C48C 
     CE3E C48C 
     CE40 C48C 
     CE42 C48C 
     CE44 C48C 
     CE46 C48C 
     CE48 C48C 
     CE4A C48C 
     CE4C C48C 
     CE4E C48C 
     CE50 C48C 
     CE52 C48C 
     CE54 C48C 
     CE56 C48C 
     CE58 C48C 
     CE5A C48C 
     CE5C C48C 
     CE5E C48C 
     CE60 C421 
     CE62 7F8A 
     CE64 8B8A 
     CE66 8B8A 
     CE68 8B8A 
     CE6A 8B8A 
     CE6C 8B8A 
     CE6E 8B8A 
     CE70 8B8A 
     CE72 8B8F 
     CE74 908F 
     CE76 908F 
     CE78 908F 
     CE7A 908F 
     CE7C 908F 
     CE7E 908F 
     CE80 908F 
     CE82 90E0 
     CE84 04F3 
     CE86 20B4 
     CE88 B5B4 
     CE8A B5B4 
     CE8C B5B4 
     CE8E B5B4 
     CE90 B5B4 
     CE92 B5B4 
     CE94 B5B4 
     CE96 B5B7 
     CE98 B8B7 
     CE9A B8B7 
     CE9C B8B7 
     CE9E B8B7 
     CEA0 B8B7 
     CEA2 B8B7 
     CEA4 B8B7 
     CEA6 B8DA 
     CEA8 0517 
     CEAA 1250 
     CEAC BFC1 
     CEAE C4C5 
     CEB0 C62D 
     CEB2 8A2D 
     CEB4 8A2D 
     CEB6 8A2D 
     CEB8 8A2D 
     CEBA 8A2D 
     CEBC 8ACC 
     CEBE 0541 
     CEC0 2982 
     CEC2 94B6 
     CEC4 6D91 
     CEC6 94B6 
     CEC8 6D91 
     CECA 7F8D 
     CECC D8A5 
     CECE 7F8D 
     CED0 D8A5 
     CED2 88D9 
     CED4 DAB2 
     CED6 88D9 
     CED8 DAB2 
     CEDA DBDC 
     CEDC DDDE 
     CEDE 2D87 
     CEE0 8A2D 
     CEE2 878A 
     CEE4 2D87 
     CEE6 8A2D 
     CEE8 878A 
     CEEA CC05 
     CEEC 6E18 
     CEEE 1CDF 
     CEF0 8F1C 
     CEF2 DF8F 
     CEF4 1CDF 
     CEF6 8F1C 
     CEF8 DF8F 
     CEFA B700 
     CEFC B83C 
     CEFE 3511 
     CF00 E130 
     CF02 50C0 
     CF04 25C5 
     CF06 CC05 
     CF08 6ECC 
     CF0A 056E 
     CF0C CF05 
     CF0E 7E21 
     CF10 B700 
     CF12 B82D 
     CF14 878A 
     CF16 2D87 
     CF18 8AB4 
     CF1A C7B5 
     CF1C B4C7 
     CF1E B5B4 
     CF20 C7B5 
     CF22 B4C7 
     CF24 B528 
     CF26 1C82 
     CF28 281C 
     CF2A 8228 
     CF2C 1C82 
     CF2E 281C 
     CF30 82D8 
     CF32 05A9 
     CF34 0C50 
     CF36 C1BF 
     CF38 50C1 
     CF3A BF50 
     CF3C C1BF 
     CF3E 50C1 
     CF40 BFCC 
     CF42 05A9 
     CF44 CC05 
     CF46 C5CC 
     CF48 05A9 
     CF4A CC05 
     CF4C C519 
     CF4E 1B10 
     CF50 E41B 
     CF52 10E4 
     CF54 1B10 
     CF56 E41B 
     CF58 10E4 
     CF5A B700 
     CF5C B8B7 
     CF5E 00B8 
     CF60 B700 
     CF62 B8B7 
     CF64 00B8 
     CF66 8FCC 
     CF68 057E 
     CF6A CC05 
     CF6C C5D8 
     CF6E 05DE 
     CF70 CC05 
     CF72 C5CC 
     CF74 055A 
     CF76 219C 
     CF78 7F8D 
     CF7A D8A5 
     CF7C 88D9 
     CF7E DA7F 
     CF80 8DD8 
     CF82 A588 
     CF84 D9DA 
     CF86 B28D 
     CF88 D8A5 
     CF8A 887F 
     CF8C 8DD8 
     CF8E A5E8 
     CF90 E9EA 
     CF92 EB01 
     CF94 ECC5 
     CF96 061C 
     CF98 0101 
     CF9A 7F03 
     CF9C 7F03 
     CF9E 7203 
     CFA0 1C06 
     CFA2 0404 
     CFA4 0505 
     CFA6 0606 
     CFA8 0603 
     CFAA 0304 
     CFAC 0303 
     CFAE 0304 
     CFB0 0303 
     CFB2 0304 
     CFB4 0303 
     CFB6 0304 
     CFB8 0303 
     CFBA 0304 
     CFBC 0394 
     CFBE 1194 
     CFC0 1194 
     CFC2 1194 
     CFC4 1194 
     CFC6 1194 
     CFC8 1194 
     CFCA 1194 
     CFCC 1194 
     CFCE 1194 
     CFD0 1194 
     CFD2 1194 
     CFD4 1194 
     CFD6 1194 
     CFD8 1194 
     CFDA 1194 
     CFDC 1194 
     CFDE 1194 
     CFE0 1104 
     CFE2 0303 
     CFE4 0403 
     CFE6 4804 
     CFE8 4907 
     CFEA 0E07 
     CFEC 0605 
     CFEE 0607 
     CFF0 090A 
     CFF2 0706 
     CFF4 0506 
     CFF6 0709 
     CFF8 0A8E 
     CFFA 0108 
     CFFC 0302 
     CFFE 0100 
     D000 0103 
     D002 0507 
     D004 8812 
     D006 8812 
     D008 8812 
     D00A 0A00 
     D00C 0102 
     D00E 0001 
     D010 0001 
     D012 0200 
     D014 018A 
     D016 2188 
     D018 238A 
     D01A 2188 
     D01C 238A 
     D01E 2188 
     D020 238A 
     D022 2121 
     D024 0200 
     D026 0102 
     D028 0304 
     D02A 0506 
     D02C 0708 
     D02E 090A 
     D030 0B0C 
     D032 0D0E 
     D034 0F05 
     D036 0403 
     D038 0504 
     D03A 0504 
     D03C 0504 
     D03E 0305 
     D040 0403 
     D042 0504 
     D044 0389 
     D046 5290 
     D048 4B89 
     D04A 5290 
     D04C 4B8D 
     D04E 4E05 
     D050 0201 
     D052 0203 
     D054 0490 
     D056 4B89 
     D058 5290 
     D05A 4B89 
     D05C 5290 
     D05E 4B8D 
     D060 4E8D 
     D062 4E11 
     D064 0201 
     D066 0203 
     D068 0405 
     D06A 0001 
     D06C 0200 
     D06E 0100 
     D070 0100 
     D072 0100 
     D074 018B 
     D076 808B 
     D078 808B 
     D07A 800E 
     D07C 0304 
     D07E 0506 
     D080 0708 
     D082 0903 
     D084 0405 
     D086 0607 
     D088 0809 
     D08A 8E92 
     D08C 8E92 
     D08E 8E92 
     D090 8E92 
     D092 8E92 
     D094 8E92 
     D096 8E92 
     D098 8E92 
     D09A 8E92 
     D09C 8E92 
     D09E 8E92 
     D0A0 8E92 
     D0A2 8E92 
     D0A4 8E92 
     D0A6 8E92 
     D0A8 8E92 
     D0AA 8E92 
     D0AC 8E92 
     D0AE 8E92 
     D0B0 8E92 
     D0B2 8E92 
     D0B4 8E92 
     D0B6 8E92 
     D0B8 8E92 
     D0BA 8E92 
     D0BC 8E92 
     D0BE 8E92 
     D0C0 8E92 
     D0C2 8E92 
     D0C4 8E92 
     D0C6 8E92 
     D0C8 0400 
     D0CA 0102 
     D0CC 0388 
     D0CE 3B88 
     D0D0 3B88 
     D0D2 3B09 
     D0D4 0001 
     D0D6 0203 
     D0D8 0001 
     D0DA 0203 
     D0DC 0F01 
     D0DE 04CA 
     D0E0 069B 
     D0E2 CA06 
     D0E4 9BC8 
     D0E6 069D 
     D0E8 CA06 
     D0EA 9BC8 
     D0EC 069D 
     D0EE CA06 
     D0F0 9BC8 
     D0F2 069D 
     D0F4 CA06 
     D0F6 9BE1 
     D0F8 06B4 
     D0FA C906 
     D0FC CCD0 
     D0FE 06C5 
     D100 C906 
     D102 CCD0 
     D104 06C5 
     D106 CD06 
     D108 C805 
     D10A 0201 
     D10C 0203 
     D10E 04D0 
     D110 06C5 
     D112 C906 
     D114 CCD0 
     D116 06C5 
     D118 C906 
     D11A CCD0 
     D11C 06C5 
     D11E CD06 
     D120 C8CD 
     D122 06C8 
     D124 D106 
     D126 F4CB 
     D128 06FA 
     D12A CB06 
     D12C FACB 
     D12E 06FA 
     D130 0C03 
     D132 0405 
     D134 0607 
     D136 0803 
     D138 0405 
     D13A 0607 
     D13C 088C 
     D13E 548C 
     D140 548C 
     D142 548C 
     D144 548C 
     D146 548C 
     D148 548C 
     D14A 548C 
     D14C 548C 
     D14E 548C 
     D150 548C 
     D152 548C 
     D154 548C 
     D156 548C 
     D158 548C 
     D15A 548C 
     D15C 548C 
     D15E 548C 
     D160 548C 
     D162 548C 
     D164 548C 
     D166 548C 
     D168 548C 
     D16A 548C 
     D16C 548C 
     D16E 548C 
     D170 548C 
     D172 548C 
     D174 548C 
     D176 548C 
     D178 548C 
     D17A 54C8 
     D17C 0764 
     D17E 0404 
     D180 0506 
     D182 07C8 
     D184 06B5 
     D186 C806 
     D188 B5C9 
     D18A 0764 
     D18C C606 
     D18E B506 
     D190 040F 
     D192 030F 
     D194 030F 
     D196 C807 
     D198 64C4 
     D19A 06B9 
     D19C C806 
     D19E B5C8 
     D1A0 06B5 
     D1A2 C907 
     D1A4 6410 
     D1A6 0304 
     D1A8 0304 
     D1AA 0304 
     D1AC 0304 
     D1AE 0304 
     D1B0 0304 
     D1B2 0304 
     D1B4 0304 
     D1B6 9001 
     D1B8 9001 
     D1BA 9001 
     D1BC 9001 
     D1BE 9001 
     D1C0 9001 
     D1C2 9001 
     D1C4 9001 
     D1C6 9001 
     D1C8 9001 
     D1CA 9001 
     D1CC 9001 
     D1CE 9001 
     D1D0 9001 
     D1D2 9001 
     D1D4 1000 
     D1D6 0100 
     D1D8 0100 
     D1DA 0100 
     D1DC 0100 
     D1DE 0100 
     D1E0 0100 
     D1E2 0100 
     D1E4 0190 
     D1E6 3090 
     D1E8 3090 
     D1EA 3090 
     D1EC 3090 
     D1EE 3014 
     D1F0 0001 
     D1F2 0203 
     D1F4 0405 
     D1F6 0607 
     D1F8 0809 
     D1FA 0001 
     D1FC 0203 
     D1FE 0405 
     D200 0607 
     D202 0809 
     D204 944B 
     D206 944B 
     D208 944B 
     D20A 1600 
     D20C 0100 
     D20E 0100 
     D210 0102 
     D212 0304 
     D214 0001 
     D216 0001 
     D218 0001 
     D21A 0001 
     D21C 0203 
     D21E 0400 
     D220 0196 
     D222 6696 
     D224 6696 
     D226 6696 
     D228 6696 
     D22A 6696 
     D22C 6696 
     D22E 6696 
     D230 6696 
     D232 6696 
     D234 6696 
     D236 6696 
     D238 6696 
     D23A 6696 
     D23C 6696 
     D23E 6696 
     D240 6696 
     D242 6696 
     D244 6696 
     D246 6696 
     D248 6696 
     D24A 6696 
     D24C 6696 
     D24E 6696 
     D250 6696 
     D252 6696 
     D254 6696 
     D256 6696 
     D258 6696 
     D25A 6696 
     D25C 6696 
     D25E 6696 
     D260 6696 
     D262 6696 
     D264 6696 
     D266 6696 
     D268 6696 
     D26A 6696 
     D26C 6696 
     D26E 6696 
     D270 6696 
     D272 6696 
     D274 6696 
     D276 6696 
     D278 6696 
     D27A 6696 
     D27C 6696 
     D27E 6694 
     D280 4B06 
     D282 0A0B 
     D284 0C0D 
     D286 0E0F 
     D288 D006 
     D28A B5D0 
     D28C 06B5 
     D28E 944B 
     D290 060A 
     D292 0B0C 
     D294 0D0E 
     D296 0F94 
     D298 4B0A 
     D29A 0001 
     D29C 0203 
     D29E 0405 
     D2A0 0607 
     D2A2 080F 
     D2A4 03C1 
     D2A6 7B7F 
     D2A8 6B82 
     D2AA 0481 
     D2AC C17B 
     D2AE 7F6B 
     D2B0 8204 
     D2B2 81C1 
     D2B4 7B7F 
     D2B6 6B82 
     D2B8 0481 
     D2BA C17B 
     D2BC 7F6B 
     D2BE 8205 
     D2C0 81C1 
     D2C2 7D42 
     D2C4 7F6B 
     D2C6 8205 
     D2C8 81C1 
     D2CA 7D42 
     D2CC 7F6B 
     D2CE 8205 
     D2D0 81C1 
     D2D2 7D42 
     D2D4 7F6B 
     D2D6 8205 
     D2D8 81C1 
     D2DA 7D42 
     D2DC 7F6B 
     D2DE 8216 
     D2E0 81C8 
     D2E2 4878 
     D2E4 4844 
     D2E6 C848 
     D2E8 790B 
     D2EA 4844 
     D2EC C848 
     D2EE 790B 
     D2F0 4844 
     D2F2 C848 
     D2F4 7923 
     D2F6 933D 
     D2F8 0248 
     D2FA 435B 
     D2FC 8301 
     D2FE 8894 
     D300 3E93 
     D302 3D02 
     D304 4843 
     D306 5B83 
     D308 0588 
     D30A 4879 
     D30C 1743 
     D30E 6183 
     D310 4EC3 
     D312 15FF 
     D314 3F12 
     D316 C345 
     D318 44C3 
     D31A 7A43 
     D31C C345 
     D31E 44C3 
     D320 4544 
     D322 C345 
     D324 44C3 
     D326 4544 
     D328 8A78 
     D32A 8E76 
     D32C 8A78 
     D32E 0243 
     D330 C38B 
     D332 7713 
     D334 43C3 
     D336 43C3 
     D338 4544 
     D33A C345 
     D33C 44C3 
     D33E 4546 
     D340 4542 
     D342 4443 
     D344 4D77 
     D346 8391 
     D348 738A 
     D34A 788E 
     D34C 768A 
     D34E 788B 
     D350 9002 
     D352 44C3 
     D354 8B90 
     D356 0244 
     D358 C391 
     D35A 9005 
     D35C 47C8 
     D35E 4842 
     D360 8172 
     D362 8211 
     D364 81C6 
     D366 8686 
     D368 8688 
     D36A 44C8 
     D36C 44C8 
     D36E 44C8 
     D370 44C8 
     D372 4842 
     D374 8172 
     D376 8291 
     D378 C072 
     D37A 8291 
     D37C C072 
     D37E 828D 
     D380 C011 
     D382 42C1 
     D384 C2C1 
     D386 82C1 
     D388 C2C1 
     D38A C2C1 
     D38C C2C1 
     D38E 82C1 
     D390 C2C1 
     D392 C290 
     D394 DF90 
     D396 DF90 
     D398 DF90 
     D39A DF90 
     D39C DF90 
     D39E DF90 
     D3A0 DF90 
     D3A2 DF90 
     D3A4 DF90 
     D3A6 DF90 
     D3A8 DF90 
     D3AA DF90 
     D3AC DF90 
     D3AE DF90 
     D3B0 DF90 
     D3B2 DF90 
     D3B4 DF90 
     D3B6 DF90 
     D3B8 DF90 
     D3BA DF90 
     D3BC DF90 
     D3BE DF90 
     D3C0 DF90 
     D3C2 DF90 
     D3C4 DF90 
     D3C6 DF90 
     D3C8 DF90 
     D3CA DF90 
     D3CC DF90 
     D3CE DF8F 
     D3D0 DF1E 
     D3D2 C47A 
     D3D4 4244 
     D3D6 7A7A 
     D3D8 4443 
     D3DA 41C4 
     D3DC 7A7A 
     D3DE 4443 
     D3E0 41C4 
     D3E2 7A7A 
     D3E4 4443 
     D3E6 41C4 
     D3E8 7A42 
     D3EA C47A 
     D3EC 4279 
     D3EE 1B00 
     D3F0 01C1 
     D3F2 7F82 
     D3F4 7F82 
     D3F6 7F82 
     D3F8 7F82 
     D3FA 7F82 
     D3FC 7F82 
     D3FE 0582 
     D400 8282 
     D402 8282 
     D404 D609 
     D406 70D3 
     D408 0971 
     D40A 0248 
     D40C C35B 
     D40E 8301 
     D410 88D4 
     D412 0972 
     D414 D309 
     D416 7102 
     D418 48C3 
     D41A 5B83 
     D41C 0588 
     D41E 4879 
     D420 17C3 
     D422 6183 
     D424 4EC3 
     D426 D509 
     D428 A3CA 
     D42A 09AC 
     D42C CE09 
     D42E AACA 
     D430 09AC 
     D432 CB09 
     D434 C402 
     D436 44C3 
     D438 D309 
     D43A C4D1 
     D43C 09A7 
     D43E CA09 
     D440 ACCE 
     D442 09AA 
     D444 CA09 
     D446 ACCB 
     D448 09C4 
     D44A 0244 
     D44C C3CB 
     D44E 09C4 
     D450 0244 
     D452 C3D1 
     D454 09C4 
     D456 0547 
     D458 C848 
     D45A 4281 
     D45C 7282 
     D45E D109 
     D460 F472 
     D462 82D1 
     D464 09F4 
     D466 7282 
     D468 D109 
     D46A F472 
     D46C 82CD 
     D46E 09F4 
     D470 0CC2 
     D472 7C7B 
     D474 C27C 
     D476 7BC2 
     D478 7C7B 
     D47A C27C 
     D47C 7B8C 
     D47E 818C 
     D480 818C 
     D482 818C 
     D484 818C 
     D486 818C 
     D488 818C 
     D48A 818C 
     D48C 818C 
     D48E 818C 
     D490 818C 
     D492 818C 
     D494 818C 
     D496 818C 
     D498 818C 
     D49A 81DE 
     D49C 0A62 
     D49E 01C1 
     D4A0 6081 
     D4A2 01C1 
     D4A4 6081 
     D4A6 01C1 
     D4A8 6081 
     D4AA 01C1 
     D4AC 5D81 
     D4AE 01C1 
     D4B0 6081 
     D4B2 01C1 
     D4B4 5D81 
     D4B6 03C1 
     D4B8 82C2 
     D4BA 7F82 
     D4BC 7F82 
     D4BE 7F82 
     D4C0 7F82 
     D4C2 6182 
     D4C4 0181 
     D4C6 7F8C 
     D4C8 7F8C 
     D4CA 5B8C 
     D4CC 01C3 
     D4CE 5783 
     D4D0 14C3 
     D4D2 C383 
     D4D4 83CC 
     D4D6 8686 
     D4D8 8C86 
     D4DA 868C 
     D4DC 8686 
     D4DE 8C86 
     D4E0 868C 
     D4E2 8686 
     D4E4 8C8F 
     D4E6 388F 
     D4E8 388F 
     D4EA 388F 
     D4EC 388F 
     D4EE 388F 
     D4F0 388F 
     D4F2 388F 
     D4F4 388F 
     D4F6 388F 
     D4F8 388F 
     D4FA 388F 
     D4FC 388F 
     D4FE 388F 
     D500 3846 
     D502 868D 
     D504 3A8F 
     D506 388F 
     D508 388E 
     D50A 3864 
     D50C C301 
     D50E 6148 
     D510 8302 
     D512 9B00 
     D514 01BF 
     D516 4B3F 
     D518 130C 
     D51A C844 
     D51C C844 
     D51E C844 
     D520 C844 
     D522 C844 
     D524 C844 
     D526 C844 
     D528 C844 
     D52A C844 
     D52C 9206 
     D52E 9206 
     D530 9206 
     D532 9206 
     D534 9206 
     D536 9206 
     D538 9206 
     D53A 9206 
     D53C 9206 
     D53E 9206 
     D540 9206 
     D542 9206 
     D544 9206 
     D546 16C8 
     D548 44C8 
     D54A 44C4 
     D54C 42C4 
     D54E 42C4 
     D550 42C4 
     D552 42C4 
     D554 42C4 
     D556 42C4 
     D558 42C4 
     D55A 42C4 
     D55C 4292 
     D55E 3792 
     D560 3792 
     D562 3792 
     D564 371A 
     D566 C442 
     D568 C442 
     D56A C442 
     D56C C27F 
     D56E 7D42 
     D570 7DC2 
     D572 7F7D 
     D574 427D 
     D576 C27F 
     D578 7D42 
     D57A 7DC2 
     D57C 7F7D 
     D57E 427D 
     D580 9458 
     D582 18C4 
     D584 42C4 
     D586 42C2 
     D588 7FC4 
     D58A 42C4 
     D58C 42C4 
     D58E 42C2 
     D590 7FC4 
     D592 42C4 
     D594 42C4 
     D596 42C2 
     D598 7FC4 
     D59A 4298 
     D59C 6F98 
     D59E 6F98 
     D5A0 6F98 
     D5A2 6F98 
     D5A4 6F98 
     D5A6 6F98 
     D5A8 6F98 
     D5AA 6F98 
     D5AC 6F98 
     D5AE 6F98 
     D5B0 6F98 
     D5B2 6F98 
     D5B4 6F98 
     D5B6 6F98 
     D5B8 6F98 
     D5BA 6F98 
     D5BC 6F98 
     D5BE 6F98 
     D5C0 6F98 
     D5C2 6F98 
     D5C4 6F98 
     D5C6 6F98 
     D5C8 6F98 
     D5CA 6F98 
     D5CC 6F98 
     D5CE 6F98 
     D5D0 6F98 
     D5D2 6F98 
     D5D4 6F98 
     D5D6 6F98 
     D5D8 6F34 
     D5DA C27F 
     D5DC 7D42 
     D5DE 7DC2 
     D5E0 7F7D 
     D5E2 427F 
     D5E4 7D42 
     D5E6 46C2 
     D5E8 7F7D 
     D5EA 427F 
     D5EC 7D42 
     D5EE 46C2 
     D5F0 7F7D 
     D5F2 427F 
     D5F4 7D42 
     D5F6 46C2 
     D5F8 7F7D 
     D5FA 427D 
     D5FC C27F 
     D5FE 7D42 
     D600 7F7D 
     D602 4243 
     D604 C27F 
     D606 7D42 
     D608 7DC2 
     D60A 7F7D 
     D60C 427D 
     D60E 49C3 
     D610 0258 
     D612 0000 
     D614 0004 
     D616 0277 
     D618 03F3 
     D61A 0628 
     D61C 067A 
     D61E 076D 
     D620 081C 
     D622 0835 
     D624 0934 
     D626 0A80 
     D628 0B2E 
     D62A 0BA4 
     D62C 0F05 
     D62E 0003 
     D630 0203 
     D632 0806 
     D634 0C06 
     D636 0106 
     D638 0906 
     D63A 0E02 
     D63C 0E06 
     D63E 0406 
     D640 0007 
     D642 0E05 
     D644 0D06 
     D646 0D05 
     D648 0307 
     D64A 0607 
     D64C 0107 
     D64E 0006 
     D650 0707 
     D652 0407 
     D654 0A07 
     D656 0C07 
     D658 0807 
     D65A 0E07 
     D65C 0008 
     D65E 0D07 
     D660 0408 
     D662 0907 
     D664 0708 
     D666 0A08 
     D668 0508 
     D66A 0B08 
     D66C 0108 
     D66E 0808 
     D670 0E08 
     D672 0109 
     D674 0309 
     D676 0709 
     D678 0D08 
     D67A 0A09 
     D67C 0009 
     D67E 0D09 
     D680 000A 
     D682 0609 
     D684 030A 
     D686 0909 
     D688 060A 
     D68A 040A 
     D68C 0A0A 
     D68E 070A 
     D690 0D0A 
     D692 000B 
     D694 0E0A 
     D696 040B 
     D698 0B0A 
     D69A 080B 
     D69C 0F0A 
     D69E 070B 
     D6A0 0C0B 
     D6A2 030B 
     D6A4 000C 
     D6A6 0E0B 
     D6A8 040C 
     D6AA 0B0B 
     D6AC 020C 
     D6AE 080C 
     D6B0 0A05 
     D6B2 060C 
     D6B4 0B0C 
     D6B6 0A0C 
     D6B8 000D 
     D6BA 0D0C 
     D6BC 040D 
     D6BE 0905 
     D6C0 020D 
     D6C2 0805 
     D6C4 080D 
     D6C6 070D 
     D6C8 000E 
     D6CA 0B0D 
     D6CC 0B05 
     D6CE 020E 
     D6D0 090D 
     D6D2 0C05 
     D6D4 080E 
     D6D6 050E 
     D6D8 0C0E 
     D6DA 090E 
     D6DC 0F0E 
     D6DE 0E0E 
     D6E0 040F 
     D6E2 080F 
     D6E4 0F0F 
     D6E6 0E0F 
     D6E8 0510 
     D6EA 0C0F 
     D6EC 0810 
     D6EE 0410 
     D6F0 0111 
     D6F2 0011 
     D6F4 0411 
     D6F6 0C11 
     D6F8 0012 
     D6FA 0812 
     D6FC 0C12 
     D6FE 0512 
     D700 0413 
     D702 0813 
     D704 0F13 
     D706 0014 
     D708 0614 
     D70A 0814 
     D70C 0D14 
     D70E 0E14 
     D710 0415 
     D712 0515 
     D714 0C15 
     D716 0216 
     D718 0E15 
     D71A 0416 
     D71C 0B16 
     D71E 0117 
     D720 0017 
     D722 0417 
     D724 0C17 
     D726 0817 
     D728 0318 
     D72A 0D17 
     D72C 0F17 
     D72E 0B17 
     D730 0704 
     D732 0604 
     D734 0504 
     D736 0804 
     D738 0904 
     D73A 0F08 
     D73C 001E 
     D73E 0C23 
     D740 0C04 
     D742 0602 
     D744 011E 
     D746 0419 
     D748 0D1F 
     D74A 0404 
     D74C 0202 
     D74E 0315 
     D750 0519 
     D752 0E17 
     D754 0D11 
     D756 0E11 
     D758 0412 
     D75A 0C13 
     D75C 0414 
     D75E 0514 
     D760 0815 
     D762 0016 
     D764 0816 
     D766 0916 
     D768 0418 
     D76A 0019 
     D76C 0819 
     D76E 0C19 
     D770 041A 
     D772 001B 
     D774 0C1B 
     D776 051C 
     D778 081C 
     D77A 001D 
     D77C 041D 
     D77E 0C1D 
     D780 081E 
     D782 0C1E 
     D784 081F 
     D786 0420 
     D788 0021 
     D78A 0022 
     D78C 0C22 
     D78E 0023 
     D790 0B23 
     D792 0D1A 
     D794 0207 
     D796 0903 
     D798 0E12 
     D79A 0506 
     D79C 0303 
     D79E 0F12 
     D7A0 000F 
     D7A2 060D 
     D7A4 010D 
     D7A6 0C0C 
     D7A8 070C 
     D7AA 0D02 
     D7AC 010A 
     D7AE 0505 
     D7B0 0409 
     D7B2 0209 
     D7B4 0B02 
     D7B6 0105 
     D7B8 0902 
     D7BA 0B06 
     D7BC 0809 
     D7BE 0C09 
     D7C0 080A 
     D7C2 0C0A 
     D7C4 0F0B 
     D7C6 0C0D 
     D7C8 040E 
     D7CA 0010 
     D7CC 0C10 
     D7CE 0811 
     D7D0 0013 
     D7D2 0C14 
     D7D4 0C16 
     D7D6 0C18 
     D7D8 0D19 
     D7DA 0E19 
     D7DC 0C1A 
     D7DE 0C1F 
     D7E0 0B21 
     D7E2 0C25 
     D7E4 0028 
     D7E6 072A 
     D7E8 002D 
     D7EA 0F07 
     D7EC 0005 
     D7EE 050B 
     D7F0 050D 
     D7F2 090A 
     D7F4 0D03 
     D7F6 0503 
     D7F8 0004 
     D7FA 0C03 
     D7FC 0101 
     D7FE 0601 
     D800 0D01 
     D802 0502 
     D804 0F03 
3474               *FXCOIN BCOPY "coin.vgm.spf"
3475               *FXJUMP BCOPY "longjump.vgm.spf"
3476               BUFFS
3477               *      Will be overwritten by buffers after uploading to VDP
3478                      COPY "fixed.a99"
**** **** ****     > fixed.a99
0001               ****************************************
0002               * Colorset Definitions
0003               ****************************************
0004 D806 7070     FCL112 DATA >7070,>F0F0,>F0F0,>7070    ;
     D808 F0F0 
     D80A F0F0 
     D80C 7070 
0005 D80E 7070     FCL113 DATA >7070,>F0F0,>F0F0,>7070    ;
     D810 F0F0 
     D812 F0F0 
     D814 7070 
0006 D816 7070     FCL114 DATA >7070,>F0F0,>F0F0,>7070    ;
     D818 F0F0 
     D81A F0F0 
     D81C 7070 
0007 D81E 7070     FCL115 DATA >7070,>F0F0,>F0F0,>7070    ;
     D820 F0F0 
     D822 F0F0 
     D824 7070 
0008 D826 7070     FCL116 DATA >7070,>F0F0,>F0F0,>7070    ;
     D828 F0F0 
     D82A F0F0 
     D82C 7070 
0009 D82E 5050     FCL117 DATA >5050,>E050,>4040,>4040    ;
     D830 E050 
     D832 4040 
     D834 4040 
0010 D836 5050     FCL118 DATA >5050,>E050,>4040,>4040    ;
     D838 E050 
     D83A 4040 
     D83C 4040 
0011 D83E 5050     FCL119 DATA >5050,>E050,>4040,>4040    ;
     D840 E050 
     D842 4040 
     D844 4040 
0012 D846 7070     FCL120 DATA >7070,>F070,>3020,>C0C0    ;
     D848 F070 
     D84A 3020 
     D84C C0C0 
0013 D84E 7070     FCL121 DATA >7070,>F070,>3020,>C0C0    ;
     D850 F070 
     D852 3020 
     D854 C0C0 
0014 D856 7070     FCL122 DATA >7070,>F070,>3020,>C0C0    ;
     D858 F070 
     D85A 3020 
     D85C C0C0 
0015 D85E 7070     FCL123 DATA >7070,>F070,>3020,>C0C0    ;
     D860 F070 
     D862 3020 
     D864 C0C0 
0016 D866 7070     FCL124 DATA >7070,>F070,>3020,>C0C0    ;
     D868 F070 
     D86A 3020 
     D86C C0C0 
0017 D86E 7070     FCL125 DATA >7070,>F070,>3020,>C0C0    ;
     D870 F070 
     D872 3020 
     D874 C0C0 
0018 D876 E0E0     FCL126 DATA >E0E0,>EFEF,>E1E1,>E1E1    ;
     D878 EFEF 
     D87A E1E1 
     D87C E1E1 
0019 D87E F0F0     FCL127 DATA >F0F0,>F0F0,>F0F0,>F0F0    ;
     D880 F0F0 
     D882 F0F0 
     D884 F0F0 
0020               
0021 D886 F1F1     FCL240 DATA >F1F1,>F1F1,>F1F1,>F1F1    ;
     D888 F1F1 
     D88A F1F1 
     D88C F1F1 
0022 D88E F1F1     FCL241 DATA >F1F1,>F1F1,>F1F1,>F1F1    ;
     D890 F1F1 
     D892 F1F1 
     D894 F1F1 
0023 D896 F1F1     FCL242 DATA >F1F1,>F1F1,>F1F1,>F1F1    ;
     D898 F1F1 
     D89A F1F1 
     D89C F1F1 
0024 D89E F1F1     FCL243 DATA >F1F1,>F1F1,>F1F1,>F1F1    ;
     D8A0 F1F1 
     D8A2 F1F1 
     D8A4 F1F1 
0025 D8A6 F0F0     FCL244 DATA >F0F0,>F0F0,>F0F0,>F0F0    ;
     D8A8 F0F0 
     D8AA F0F0 
     D8AC F0F0 
0026 D8AE F0F0     FCL245 DATA >F0F0,>F0F0,>F0F0,>F0F0    ;
     D8B0 F0F0 
     D8B2 F0F0 
     D8B4 F0F0 
0027 D8B6 F0F0     FCL246 DATA >F0F0,>F0F0,>F0F0,>F0F0    ;
     D8B8 F0F0 
     D8BA F0F0 
     D8BC F0F0 
0028 D8BE F0F0     FCL247 DATA >F0F0,>F0F0,>F0F0,>F0F0    ;
     D8C0 F0F0 
     D8C2 F0F0 
     D8C4 F0F0 
0029 D8C6 F0F0     FCL248 DATA >F0F0,>F0F0,>F0F0,>F0F0    ;
     D8C8 F0F0 
     D8CA F0F0 
     D8CC F0F0 
0030 D8CE F1F0     FCL249 DATA >F1F0,>F0F0,>F0F1,>F0F1    ;
     D8D0 F0F0 
     D8D2 F0F1 
     D8D4 F0F1 
0031 D8D6 3131     FCL250 DATA >3131,>3131,>2121,>2121    ;
     D8D8 3131 
     D8DA 2121 
     D8DC 2121 
0032 D8DE C1C1     FCL251 DATA >C1C1,>C1C1,>A1A1,>A1A1    ;
     D8E0 C1C1 
     D8E2 A1A1 
     D8E4 A1A1 
0033 D8E6 B1B1     FCL252 DATA >B1B1,>B1B1,>9191,>9191    ;
     D8E8 B1B1 
     D8EA 9191 
     D8EC 9191 
0034 D8EE 8181     FCL253 DATA >8181,>8181,>6161,>6161    ;
     D8F0 8181 
     D8F2 6161 
     D8F4 6161 
0035 D8F6 5050     FCL254 DATA >5050,>E050,>4040,>4040    ;
     D8F8 E050 
     D8FA 4040 
     D8FC 4040 
0036 D8FE 1010     FCL255 DATA >1010,>1010,>1010,>1010    ;
     D900 1010 
     D902 1010 
     D904 1010 
0037               
0038               ****************************************
0039               * Character Patterns
0040               ****************************************
0041               
0042               * Top
0043               
0044 D906 003C     FPT112 DATA >003C,>4340,>4040,>2020    ;
     D908 4340 
     D90A 4040 
     D90C 2020 
0045 D90E 003C     FPT113 DATA >003C,>C300,>0000,>0000    ;
     D910 C300 
     D912 0000 
     D914 0000 
0046 D916 003C     FPT114 DATA >003C,>C202,>0202,>0404    ;
     D918 C202 
     D91A 0202 
     D91C 0404 
0047 D91E 2020     FPT115 DATA >2020,>4040,>4040,>2020    ;
     D920 4040 
     D922 4040 
     D924 2020 
0048 D926 0404     FPT116 DATA >0404,>0202,>0202,>0404    ;
     D928 0202 
     D92A 0202 
     D92C 0404 
0049 D92E FFFF     FPT117 DATA >FFFF,>FFFF,>FFFF,>FFFF    ;
     D930 FFFF 
     D932 FFFF 
     D934 FFFF 
0050 D936 FFFF     FPT118 DATA >FFFF,>FFFF,>FFFF,>FFFF    ;
     D938 FFFF 
     D93A FFFF 
     D93C FFFF 
0051 D93E 0000     FPT119 DATA >0000,>0000,>0000,>00FF    ;
     D940 0000 
     D942 0000 
     D944 00FF 
0052 D946 7E7F     FPT120 DATA >7E7F,>637E,>7F63,>7F7E    ;
     D948 637E 
     D94A 7F63 
     D94C 7F7E 
0053 D94E 3E7F     FPT121 DATA >3E7F,>6363,>6363,>7F3E    ;
     D950 6363 
     D952 6363 
     D954 7F3E 
0054 D956 6363     FPT122 DATA >6363,>6363,>6363,>7F3E    ;
     D958 6363 
     D95A 6363 
     D95C 7F3E 
0055 D95E 6373     FPT123 DATA >6373,>7B7F,>6F67,>6363    ;
     D960 7B7F 
     D962 6F67 
     D964 6363 
0056 D966 3E7F     FPT124 DATA >3E7F,>6360,>6063,>7F3E    ;
     D968 6360 
     D96A 6063 
     D96C 7F3E 
0057 D96E 6666     FPT125 DATA >6666,>667E,>3C18,>1818    ;
     D970 667E 
     D972 3C18 
     D974 1818 
0058 D976 3C7E     FPT126 DATA >3C7E,>CFCF,>FFFD,>6A3C    ;
     D978 CFCF 
     D97A FFFD 
     D97C 6A3C 
0059 D97E 1028     FPT127 DATA >1028,>1000,>1028,>1000    ;
     D980 1000 
     D982 1028 
     D984 1000 
0060               
0061 D986 0000     FPT240 DATA >0000,>0000,>0A55,>AA50    ;
     D988 0000 
     D98A 0A55 
     D98C AA50 
0062 D98E 0000     FPT241 DATA >0000,>0156,>AD5A,>A000    ;
     D990 0156 
     D992 AD5A 
     D994 A000 
0063 D996 0006     FPT242 DATA >0006,>DFED,>BFE4,>0000    ;
     D998 DFED 
     D99A BFE4 
     D99C 0000 
0064 D99E 12FF     FPT243 DATA >12FF,>FFFF,>BB00,>0000    ;
     D9A0 FFFF 
     D9A2 BB00 
     D9A4 0000 
0065 D9A6 A8FF     FPT244 DATA >A8FF,>FEFF,>2E00,>0000    ;
     D9A8 FEFF 
     D9AA 2E00 
     D9AC 0000 
0066 D9AE 7050     FPT245 DATA >7050,>5050,>5E42,>7E00    ;
     D9B0 5050 
     D9B2 5E42 
     D9B4 7E00 
0067 D9B6 3828     FPT246 DATA >3828,>2828,>2828,>3800    ;
     D9B8 2828 
     D9BA 2828 
     D9BC 3800 
0068 D9BE EEAA     FPT247 DATA >EEAA,>AA54,>5444,>3800    ;
     D9C0 AA54 
     D9C2 5444 
     D9C4 3800 
0069 D9C6 7E42     FPT248 DATA >7E42,>5E44,>5C42,>7E00    ;
     D9C8 5E44 
     D9CA 5C42 
     D9CC 7E00 
0070 D9CE 3C42     FPT249 DATA >3C42,>5C42,>3A42,>3C00    ;
     D9D0 5C42 
     D9D2 3A42 
     D9D4 3C00 
0071 D9D6 0000     FPT250 DATA >0000,>0000,>0000,>00FF    ;
     D9D8 0000 
     D9DA 0000 
     D9DC 00FF 
0072 D9DE 0000     FPT251 DATA >0000,>0000,>0000,>00FF    ;
     D9E0 0000 
     D9E2 0000 
     D9E4 00FF 
0073 D9E6 0000     FPT252 DATA >0000,>0000,>0000,>00FF    ;
     D9E8 0000 
     D9EA 0000 
     D9EC 00FF 
0074 D9EE 0000     FPT253 DATA >0000,>0000,>0000,>00FF    ;
     D9F0 0000 
     D9F2 0000 
     D9F4 00FF 
0075 D9F6 0000     FPT254 DATA >0000,>0000,>0000,>00FF    ;
     D9F8 0000 
     D9FA 0000 
     D9FC 00FF 
0076 D9FE 0000     FPT255 DATA >0000,>0000,>0000,>0000    ;
     DA00 0000 
     DA02 0000 
     DA04 0000 
0077               
0078               * Middle
0079               
0080 DA06 FFFF     FPM112 DATA >FFFF,>FFFF,>FFFF,>FFFF    ;
     DA08 FFFF 
     DA0A FFFF 
     DA0C FFFF 
0081 DA0E FFFF     FPM113 DATA >FFFF,>FFFF,>FFFF,>FFFF    ;
     DA10 FFFF 
     DA12 FFFF 
     DA14 FFFF 
0082 DA16 FFFF     FPM114 DATA >FFFF,>FFFF,>FFFF,>FFFF    ;
     DA18 FFFF 
     DA1A FFFF 
     DA1C FFFF 
0083 DA1E 2020     FPM115 DATA >2020,>4040,>4040,>2020    ;
     DA20 4040 
     DA22 4040 
     DA24 2020 
0084 DA26 0404     FPM116 DATA >0404,>0202,>0202,>0404    ;
     DA28 0202 
     DA2A 0202 
     DA2C 0404 
0085 DA2E FFFF     FPM117 DATA >FFFF,>FFFF,>FFFF,>FFFF    ;
     DA30 FFFF 
     DA32 FFFF 
     DA34 FFFF 
0086 DA36 FFFF     FPM118 DATA >FFFF,>FFFF,>FFFF,>FFFF    ;
     DA38 FFFF 
     DA3A FFFF 
     DA3C FFFF 
0087 DA3E FFFF     FPM119 DATA >FFFF,>FFFF,>FFFF,>FFFF    ;
     DA40 FFFF 
     DA42 FFFF 
     DA44 FFFF 
0088 DA46 7F7F     FPM120 DATA >7F7F,>607E,>7E60,>7F7F    ;
     DA48 607E 
     DA4A 7E60 
     DA4C 7F7F 
0089 DA4E 6373     FPM121 DATA >6373,>7B7F,>6F67,>6363    ;
     DA50 7B7F 
     DA52 6F67 
     DA54 6363 
0090 DA56 7F7F     FPM122 DATA >7F7F,>607E,>7E60,>7F7F    ;
     DA58 607E 
     DA5A 7E60 
     DA5C 7F7F 
0091 DA5E 7E7F     FPM123 DATA >7E7F,>637F,>7E63,>6363    ;
     DA60 637F 
     DA62 7E63 
     DA64 6363 
0092 DA66 3E7F     FPM124 DATA >3E7F,>6067,>6763,>7F3E    ;
     DA68 6067 
     DA6A 6763 
     DA6C 7F3E 
0093 DA6E 6666     FPM125 DATA >6666,>667E,>3C18,>1818    ;
     DA70 667E 
     DA72 3C18 
     DA74 1818 
0094 DA76 FFFF     FPM126 DATA >FFFF,>FFFF,>FFFF,>FFFF    ;
     DA78 FFFF 
     DA7A FFFF 
     DA7C FFFF 
0095 DA7E FFFF     FPM127 DATA >FFFF,>FFFF,>FFFF,>FFFF    ;
     DA80 FFFF 
     DA82 FFFF 
     DA84 FFFF 
0096               
0097 DA86 0000     FPM240 DATA >0000,>000F,>1813,>1615    ;
     DA88 000F 
     DA8A 1813 
     DA8C 1615 
0098 DA8E 0000     FPM241 DATA >0000,>00FF,>00FF,>18FF    ;
     DA90 00FF 
     DA92 00FF 
     DA94 18FF 
0099 DA96 0000     FPM242 DATA >0000,>00F8,>0CE4,>34D4    ;
     DA98 00F8 
     DA9A 0CE4 
     DA9C 34D4 
0100 DA9E 1515     FPM243 DATA >1515,>1517,>1715,>1515    ;
     DAA0 1517 
     DAA2 1715 
     DAA4 1515 
0101 DAA6 4444     FPM244 DATA >4444,>5454,>5454,>5454    ;
     DAA8 5454 
     DAAA 5454 
     DAAC 5454 
0102 DAAE 1515     FPM245 DATA >1515,>1613,>180F,>0000    ;
     DAB0 1613 
     DAB2 180F 
     DAB4 0000 
0103 DAB6 00FF     FPM246 DATA >00FF,>003F,>00FF,>0000    ;
     DAB8 003F 
     DABA 00FF 
     DABC 0000 
0104 DABE 44C4     FPM247 DATA >44C4,>1424,>0CF8,>0000    ;
     DAC0 1424 
     DAC2 0CF8 
     DAC4 0000 
0105 DAC6 FFFF     FPM248 DATA >FFFF,>FFFF,>FFFF,>FFFF    ;
     DAC8 FFFF 
     DACA FFFF 
     DACC FFFF 
0106 DACE FFFF     FPM249 DATA >FFFF,>FFFF,>FFFF,>FFFF    ;
     DAD0 FFFF 
     DAD2 FFFF 
     DAD4 FFFF 
0107 DAD6 007F     FPM250 DATA >007F,>007F,>007F,>007F    ;
     DAD8 007F 
     DADA 007F 
     DADC 007F 
0108 DADE 007F     FPM251 DATA >007F,>007F,>007F,>007F    ;
     DAE0 007F 
     DAE2 007F 
     DAE4 007F 
0109 DAE6 007F     FPM252 DATA >007F,>007F,>007F,>007F    ;
     DAE8 007F 
     DAEA 007F 
     DAEC 007F 
0110 DAEE 007F     FPM253 DATA >007F,>007F,>007F,>007F    ;
     DAF0 007F 
     DAF2 007F 
     DAF4 007F 
0111 DAF6 FFFF     FPM254 DATA >FFFF,>FFFF,>FFFF,>FFFF    ;
     DAF8 FFFF 
     DAFA FFFF 
     DAFC FFFF 
0112 DAFE 0000     FPM255 DATA >0000,>0000,>0000,>0000    ;
     DB00 0000 
     DB02 0000 
     DB04 0000 
0113               
0114               * Bottom
0115               
0116 DB06 2020     FPB112 DATA >2020,>4040,>4043,>3C00    ;
     DB08 4040 
     DB0A 4043 
     DB0C 3C00 
0117 DB0E 0000     FPB113 DATA >0000,>0000,>00C3,>3C00    ;
     DB10 0000 
     DB12 00C3 
     DB14 3C00 
0118 DB16 0404     FPB114 DATA >0404,>0202,>02C2,>3C00    ;
     DB18 0202 
     DB1A 02C2 
     DB1C 3C00 
0119 DB1E 2020     FPB115 DATA >2020,>4040,>4040,>2020    ;
     DB20 4040 
     DB22 4040 
     DB24 2020 
0120 DB26 0404     FPB116 DATA >0404,>0202,>0202,>0404    ;
     DB28 0202 
     DB2A 0202 
     DB2C 0404 
0121 DB2E 6060     FPB117 DATA >6060,>6060,>6060,>7F7F    ;
     DB30 6060 
     DB32 6060 
     DB34 7F7F 
0122 DB36 7F7F     FPB118 DATA >7F7F,>607E,>7E60,>7F7F    ;
     DB38 607E 
     DB3A 7E60 
     DB3C 7F7F 
0123 DB3E 6363     FPB119 DATA >6363,>6336,>3636,>1C1C    ;
     DB40 6336 
     DB42 3636 
     DB44 1C1C 
0124 DB46 3E7F     FPB120 DATA >3E7F,>607E,>3F03,>7F3E    ;
     DB48 607E 
     DB4A 3F03 
     DB4C 7F3E 
0125 DB4E 3E7F     FPB121 DATA >3E7F,>6360,>6063,>7F3E    ;
     DB50 6360 
     DB52 6063 
     DB54 7F3E 
0126 DB56 3E7F     FPB122 DATA >3E7F,>6363,>6363,>7F3E    ;
     DB58 6363 
     DB5A 6363 
     DB5C 7F3E 
0127 DB5E 7E7F     FPB123 DATA >7E7F,>637F,>7E63,>6363    ;
     DB60 637F 
     DB62 7E63 
     DB64 6363 
0128 DB66 7F7F     FPB124 DATA >7F7F,>607E,>7E60,>7F7F    ;
     DB68 607E 
     DB6A 7E60 
     DB6C 7F7F 
0129 DB6E 0030     FPB125 DATA >0030,>3000,>0030,>3000    ;
     DB70 3000 
     DB72 0030 
     DB74 3000 
0130 DB76 FFFF     FPB126 DATA >FFFF,>FFFF,>FFFF,>FFFF    ;
     DB78 FFFF 
     DB7A FFFF 
     DB7C FFFF 
0131 DB7E FFFF     FPB127 DATA >FFFF,>FFFF,>FFFF,>FFFF    ;
     DB80 FFFF 
     DB82 FFFF 
     DB84 FFFF 
0132               
0133 DB86 3E7F     FPB240 DATA >3E7F,>6363,>6363,>7F3E    ;
     DB88 6363 
     DB8A 6363 
     DB8C 7F3E 
0134 DB8E 3838     FPB241 DATA >3838,>1818,>1818,>3C3C    ;
     DB90 1818 
     DB92 1818 
     DB94 3C3C 
0135 DB96 7E7F     FPB242 DATA >7E7F,>033F,>7E60,>7F7F    ;
     DB98 033F 
     DB9A 7E60 
     DB9C 7F7F 
0136 DB9E 7E7F     FPB243 DATA >7E7F,>033E,>3E03,>7F7E    ;
     DBA0 033E 
     DBA2 3E03 
     DBA4 7F7E 
0137 DBA6 6666     FPB244 DATA >6666,>667E,>7E06,>0606    ;
     DBA8 667E 
     DBAA 7E06 
     DBAC 0606 
0138 DBAE 7F7F     FPB245 DATA >7F7F,>607E,>7F03,>7F7E    ;
     DBB0 607E 
     DBB2 7F03 
     DBB4 7F7E 
0139 DBB6 3E7E     FPB246 DATA >3E7E,>607E,>7F63,>7F3E    ;
     DBB8 607E 
     DBBA 7F63 
     DBBC 7F3E 
0140 DBBE 7F7F     FPB247 DATA >7F7F,>0307,>0E1C,>1818    ;
     DBC0 0307 
     DBC2 0E1C 
     DBC4 1818 
0141 DBC6 3E7F     FPB248 DATA >3E7F,>633E,>7F63,>7F3E    ;
     DBC8 633E 
     DBCA 7F63 
     DBCC 7F3E 
0142 DBCE 3E7F     FPB249 DATA >3E7F,>637F,>3F03,>3F3E    ;
     DBD0 637F 
     DBD2 3F03 
     DBD4 3F3E 
0143 DBD6 FFFF     FPB250 DATA >FFFF,>FFFF,>FFFF,>FFFF    ;
     DBD8 FFFF 
     DBDA FFFF 
     DBDC FFFF 
0144 DBDE FFFF     FPB251 DATA >FFFF,>FFFF,>FFFF,>FFFF    ;
     DBE0 FFFF 
     DBE2 FFFF 
     DBE4 FFFF 
0145 DBE6 FFFF     FPB252 DATA >FFFF,>FFFF,>FFFF,>FFFF    ;
     DBE8 FFFF 
     DBEA FFFF 
     DBEC FFFF 
0146 DBEE FFFF     FPB253 DATA >FFFF,>FFFF,>FFFF,>FFFF    ;
     DBF0 FFFF 
     DBF2 FFFF 
     DBF4 FFFF 
0147 DBF6 0030     FPB254 DATA >0030,>3000,>0030,>3000    ;
     DBF8 3000 
     DBFA 0030 
     DBFC 3000 
0148 DBFE 0000     FPB255 DATA >0000,>0000,>0000,>0000    ;
     DC00 0000 
     DC02 0000 
     DC04 0000 
0149               
0150               ****************************************
0151               * Panel Map Data
0152               ****************************************
0153               
0154               * Top
0155               * -- Map Row 0 --
0156 DC06 7071     PNLMAP DATA >7071,>7171,>7171,>7172    ;
     DC08 7171 
     DC0A 7171 
     DC0C 7172 
0157               * -- Map Row 1 --
0158 DC0E 7378            DATA >7378,>797A,>7B7C,>7D74    ;
     DC10 797A 
     DC12 7B7C 
     DC14 7D74 
0159               * -- Map Row 2 --
0160 DC16 73F0            DATA >73F0,>F1F2,>F3F4,>7E74    ;
     DC18 F1F2 
     DC1A F3F4 
     DC1C 7E74 
0161               * -- Map Row 3 --
0162 DC1E 73FF            DATA >73FF,>FFFF,>FFFF,>FF74    ;
     DC20 FFFF 
     DC22 FFFF 
     DC24 FF74 
0163               * -- Map Row 4 --
0164 DC26 73F5            DATA >73F5,>F6F7,>F8F9,>7F74    ;
     DC28 F6F7 
     DC2A F8F9 
     DC2C 7F74 
0165               * -- Map Row 5 --
0166 DC2E 73FF            DATA >73FF,>FFFF,>FFFF,>FF74    ;
     DC30 FFFF 
     DC32 FFFF 
     DC34 FF74 
0167               * -- Map Row 6 --
0168 DC36 73FD            DATA >73FD,>FCFB,>FAFE,>7774    ;
     DC38 FCFB 
     DC3A FAFE 
     DC3C 7774 
0169               * -- Map Row 7 --
0170 DC3E 73FF            DATA >73FF,>FFFF,>FFFF,>FF74    ;
     DC40 FFFF 
     DC42 FFFF 
     DC44 FF74 
0171               * Middle
0172               * -- Map Row 0 --
0173 DC46 7378            DATA >7378,>797A,>7B7C,>7D74    ;
     DC48 797A 
     DC4A 7B7C 
     DC4C 7D74 
0174               * -- Map Row 1 --
0175 DC4E 73FF            DATA >73FF,>F0F1,>F1F2,>FF74    ;
     DC50 F0F1 
     DC52 F1F2 
     DC54 FF74 
0176               * -- Map Row 2 --
0177 DC56 73FF            DATA >73FF,>F3FA,>FAF4,>FF74    ;
     DC58 F3FA 
     DC5A FAF4 
     DC5C FF74 
0178               * -- Map Row 3 --
0179 DC5E 73FF            DATA >73FF,>F3FB,>FBF4,>FF74    ;
     DC60 F3FB 
     DC62 FBF4 
     DC64 FF74 
0180               * -- Map Row 4 --
0181 DC66 73FF            DATA >73FF,>F3FC,>FCF4,>FF74    ;
     DC68 F3FC 
     DC6A FCF4 
     DC6C FF74 
0182               * -- Map Row 5 --
0183 DC6E 73FF            DATA >73FF,>F3FD,>FDF4,>FF74    ;
     DC70 F3FD 
     DC72 FDF4 
     DC74 FF74 
0184               * -- Map Row 6 --
0185 DC76 73FF            DATA >73FF,>F5F6,>F6F7,>FF74    ;
     DC78 F5F6 
     DC7A F6F7 
     DC7C FF74 
0186               * -- Map Row 7 --
0187 DC7E 73FF            DATA >73FF,>FFFF,>FFFF,>FF74    ;
     DC80 FFFF 
     DC82 FFFF 
     DC84 FF74 
0188               * Bottom
0189               * -- Map Row 0 --
0190 DC86 7378            DATA >7378,>797A,>7B7C,>7D74    ;
     DC88 797A 
     DC8A 7B7C 
     DC8C 7D74 
0191               * -- Map Row 1 --
0192 DC8E 73FF            DATA >73FF,>FFFF,>FFFF,>FF74    ;
     DC90 FFFF 
     DC92 FFFF 
     DC94 FF74 
0193               * -- Map Row 2 --
0194 DC96 73F0            DATA >73F0,>F0F0,>F0F0,>F074    ;
     DC98 F0F0 
     DC9A F0F0 
     DC9C F074 
0195               * -- Map Row 3 --
0196 DC9E 73FF            DATA >73FF,>FFFF,>FFFF,>FF74    ;
     DCA0 FFFF 
     DCA2 FFFF 
     DCA4 FF74 
0197               * -- Map Row 4 --
0198 DCA6 7375            DATA >7375,>7677,>7675,>FE74    ;
     DCA8 7677 
     DCAA 7675 
     DCAC FE74 
0199               * -- Map Row 5 --
0200 DCAE 73FF            DATA >73FF,>FFFF,>FFFF,>FF74    ;
     DCB0 FFFF 
     DCB2 FFFF 
     DCB4 FF74 
0201               * -- Map Row 6 --
0202 DCB6 73FF            DATA >73FF,>FFF0,>F0FF,>FF74    ;
     DCB8 FFF0 
     DCBA F0FF 
     DCBC FF74 
0203               * -- Map Row 7 --
0204 DCBE 7071            DATA >7071,>7171,>7171,>7172    ;
     DCC0 7171 
     DCC2 7171 
     DCC4 7172 
**** **** ****     > bouncy.a99
3479                      COPY "sprites.a99"
**** **** ****     > sprites.a99
0001               ****************************************
0002               * Ball Patterns
0003               ****************************************
0004 DCC6 071A     SPR0   DATA >071A,>356E,>5FAE,>D5AA    ; Color 15
     DCC8 356E 
     DCCA 5FAE 
     DCCC D5AA 
0005 DCCE D5AA            DATA >D5AA,>D56A,>4420,>1807    ;
     DCD0 D56A 
     DCD2 4420 
     DCD4 1807 
0006 DCD6 E0B8            DATA >E0B8,>54A2,>52A9,>51A1    ;
     DCD8 54A2 
     DCDA 52A9 
     DCDC 51A1 
0007 DCDE 51A1            DATA >51A1,>4182,>060C,>18E0    ;
     DCE0 4182 
     DCE2 060C 
     DCE4 18E0 
0008 DCE6 071F     SPR1   DATA >071F,>3F7F,>7FFF,>FFFF    ; Color 14
     DCE8 3F7F 
     DCEA 7FFF 
     DCEC FFFF 
0009 DCEE FFFF            DATA >FFFF,>FF7F,>7F3F,>1F07    ;
     DCF0 FF7F 
     DCF2 7F3F 
     DCF4 1F07 
0010 DCF6 E0F8            DATA >E0F8,>FCFE,>FEFF,>FFFF    ;
     DCF8 FCFE 
     DCFA FEFF 
     DCFC FFFF 
0011 DCFE FFFF            DATA >FFFF,>FFFE,>FEFC,>F8E0    ;
     DD00 FFFE 
     DD02 FEFC 
     DD04 F8E0 
0012 DD06 0003     SPR2   DATA >0003,>0D1A,>372F,>576A    ; Color 15
     DD08 0D1A 
     DD0A 372F 
     DD0C 576A 
0013 DD0E 556A            DATA >556A,>352A,>100C,>0300    ;
     DD10 352A 
     DD12 100C 
     DD14 0300 
0014 DD16 00C0            DATA >00C0,>70A8,>54A4,>52A2    ;
     DD18 70A8 
     DD1A 54A4 
     DD1C 52A2 
0015 DD1E 42A2            DATA >42A2,>4404,>0830,>C000    ;
     DD20 4404 
     DD22 0830 
     DD24 C000 
0016 DD26 0003     SPR3   DATA >0003,>0F1F,>3F3F,>7F7F    ; Color 14
     DD28 0F1F 
     DD2A 3F3F 
     DD2C 7F7F 
0017 DD2E 7F7F            DATA >7F7F,>3F3F,>1F0F,>0300    ;
     DD30 3F3F 
     DD32 1F0F 
     DD34 0300 
0018 DD36 00C0            DATA >00C0,>F0F8,>FCFC,>FEFE    ;
     DD38 F0F8 
     DD3A FCFC 
     DD3C FEFE 
0019 DD3E FEFE            DATA >FEFE,>FCFC,>F8F0,>C000    ;
     DD40 FCFC 
     DD42 F8F0 
     DD44 C000 
0020 DD46 0000     SPR4   DATA >0000,>030E,>151A,>372A    ; Color 15
     DD48 030E 
     DD4A 151A 
     DD4C 372A 
0021 DD4E 352A            DATA >352A,>1510,>0C03,>0000    ;
     DD50 1510 
     DD52 0C03 
     DD54 0000 
0022 DD56 0000            DATA >0000,>C0B0,>48A8,>44A4    ;
     DD58 C0B0 
     DD5A 48A8 
     DD5C 44A4 
0023 DD5E 4484            DATA >4484,>0808,>30C0,>0000    ;
     DD60 0808 
     DD62 30C0 
     DD64 0000 
0024 DD66 0000     SPR5   DATA >0000,>030F,>1F1F,>3F3F    ; Color 14
     DD68 030F 
     DD6A 1F1F 
     DD6C 3F3F 
0025 DD6E 3F3F            DATA >3F3F,>1F1F,>0F03,>0000    ;
     DD70 1F1F 
     DD72 0F03 
     DD74 0000 
0026 DD76 0000            DATA >0000,>C0F0,>F8F8,>FCFC    ;
     DD78 C0F0 
     DD7A F8F8 
     DD7C FCFC 
0027 DD7E FCFC            DATA >FCFC,>F8F8,>F0C0,>0000    ;
     DD80 F8F8 
     DD82 F0C0 
     DD84 0000 
0028 DD86 0000     SPR6   DATA >0000,>0003,>0D0A,>171A    ; Color 15
     DD88 0003 
     DD8A 0D0A 
     DD8C 171A 
0029 DD8E 151A            DATA >151A,>0D0C,>0300,>0000    ;
     DD90 0D0C 
     DD92 0300 
     DD94 0000 
0030 DD96 0000            DATA >0000,>00C0,>70B0,>48A8    ;
     DD98 00C0 
     DD9A 70B0 
     DD9C 48A8 
0031 DD9E 4888            DATA >4888,>1030,>C000,>0000    ;
     DDA0 1030 
     DDA2 C000 
     DDA4 0000 
0032 DDA6 0000     SPR7   DATA >0000,>0003,>0F0F,>1F1F    ; Color 14
     DDA8 0003 
     DDAA 0F0F 
     DDAC 1F1F 
0033 DDAE 1F1F            DATA >1F1F,>0F0F,>0300,>0000    ;
     DDB0 0F0F 
     DDB2 0300 
     DDB4 0000 
0034 DDB6 0000            DATA >0000,>00C0,>F0F0,>F8F8    ;
     DDB8 00C0 
     DDBA F0F0 
     DDBC F8F8 
0035 DDBE F8F8            DATA >F8F8,>F0F0,>C000,>0000    ;
     DDC0 F0F0 
     DDC2 C000 
     DDC4 0000 
0036 DDC6 0000     SPR8   DATA >0000,>0000,>0306,>0F0A    ; Color 15
     DDC8 0000 
     DDCA 0306 
     DDCC 0F0A 
0037 DDCE 0D0A            DATA >0D0A,>0403,>0000,>0000    ;
     DDD0 0403 
     DDD2 0000 
     DDD4 0000 
0038 DDD6 0000            DATA >0000,>0000,>C0A0,>5090    ;
     DDD8 0000 
     DDDA C0A0 
     DDDC 5090 
0039 DDDE 5090            DATA >5090,>20C0,>0000,>0000    ;
     DDE0 20C0 
     DDE2 0000 
     DDE4 0000 
0040 DDE6 0000     SPR9   DATA >0000,>0000,>0307,>0F0F    ; Color 14
     DDE8 0000 
     DDEA 0307 
     DDEC 0F0F 
0041 DDEE 0F0F            DATA >0F0F,>0703,>0000,>0000    ;
     DDF0 0703 
     DDF2 0000 
     DDF4 0000 
0042 DDF6 0000            DATA >0000,>0000,>C0E0,>F0F0    ;
     DDF8 0000 
     DDFA C0E0 
     DDFC F0F0 
0043 DDFE F0F0            DATA >F0F0,>E0C0,>0000,>0000    ;
     DE00 E0C0 
     DE02 0000 
     DE04 0000 
0044 DE06 0000     SPR10  DATA >0000,>0000,>0003,>0706    ; Color 15
     DE08 0000 
     DE0A 0003 
     DE0C 0706 
0045 DE0E 0506            DATA >0506,>0300,>0000,>0000    ;
     DE10 0300 
     DE12 0000 
     DE14 0000 
0046 DE16 0000            DATA >0000,>0000,>00C0,>60A0    ;
     DE18 0000 
     DE1A 00C0 
     DE1C 60A0 
0047 DE1E 2020            DATA >2020,>C000,>0000,>0000    ;
     DE20 C000 
     DE22 0000 
     DE24 0000 
0048 DE26 0000     SPR11  DATA >0000,>0000,>0003,>0707    ; Color 14
     DE28 0000 
     DE2A 0003 
     DE2C 0707 
0049 DE2E 0707            DATA >0707,>0300,>0000,>0000    ;
     DE30 0300 
     DE32 0000 
     DE34 0000 
0050 DE36 0000            DATA >0000,>0000,>00C0,>E0E0    ;
     DE38 0000 
     DE3A 00C0 
     DE3C E0E0 
0051 DE3E E0E0            DATA >E0E0,>C000,>0000,>0000    ;
     DE40 C000 
     DE42 0000 
     DE44 0000 
0052               ****************************************
0053               * Sparkles
0054               ****************************************
0055 DE46 040E     SPR12  DATA >040E,>1F4E,>0420,>7022    ; Color 10
     DE48 1F4E 
     DE4A 0420 
     DE4C 7022 
0056 DE4E 070F            DATA >070F,>9F0F,>2772,>2008    ;
     DE50 9F0F 
     DE52 2772 
     DE54 2008 
0057 DE56 4000            DATA >4000,>2470,>240E,>9F0E    ;
     DE58 2470 
     DE5A 240E 
     DE5C 9F0E 
0058 DE5E 0490            DATA >0490,>C080,>081C,>4800    ;
     DE60 C080 
     DE62 081C 
     DE64 4800 
0059 DE66 0010     SPR13  DATA >0010,>3810,>040E,>1F0E    ; Color 10
     DE68 3810 
     DE6A 040E 
     DE6C 1F0E 
0060 DE6E 4401            DATA >4401,>0008,>1C08,>0000    ;
     DE70 0008 
     DE72 1C08 
     DE74 0000 
0061 DE76 0040            DATA >0040,>E040,>042E,>0400    ;
     DE78 E040 
     DE7A 042E 
     DE7C 0400 
0062 DE7E 1038            DATA >1038,>7C38,>1080,>0000    ;
     DE80 7C38 
     DE82 1080 
     DE84 0000 
0063 DE86 0000     SPR14  DATA >0000,>0004,>0E04,>0100    ; Color 10
     DE88 0004 
     DE8A 0E04 
     DE8C 0100 
0064 DE8E 1207            DATA >1207,>0200,>0800,>0000    ;
     DE90 0200 
     DE92 0800 
     DE94 0000 
0065 DE96 0000            DATA >0000,>0008,>40E0,>F0E4    ;
     DE98 0008 
     DE9A 40E0 
     DE9C F0E4 
0066 DE9E 4000            DATA >4000,>1038,>1000,>0000    ;
     DEA0 1038 
     DEA2 1000 
     DEA4 0000 
0067 DEA6 0000     SPR15  DATA >0000,>0000,>0200,>040E    ; Color 10
     DEA8 0000 
     DEAA 0200 
     DEAC 040E 
0068 DEAE 0400            DATA >0400,>0002,>0000,>0000    ;
     DEB0 0002 
     DEB2 0000 
     DEB4 0000 
0069 DEB6 0000            DATA >0000,>0000,>2070,>2080    ;
     DEB8 0000 
     DEBA 2070 
     DEBC 2080 
0070 DEBE 1040            DATA >1040,>E040,>0000,>0000    ;
     DEC0 E040 
     DEC2 0000 
     DEC4 0000 
0071               ****************************************
0072               * Spinning cube
0073               ****************************************
0074 DEC6 0000     SPR16  DATA >0000,>020E,>3A5E,>7E7E    ; Color 15
     DEC8 020E 
     DECA 3A5E 
     DECC 7E7E 
0075 DECE 7A5C            DATA >7A5C,>734F,>3E0F,>0300    ;
     DED0 734F 
     DED2 3E0F 
     DED4 0300 
0076 DED6 0000            DATA >0000,>C0B0,>FCFA,>EEBE    ;
     DED8 C0B0 
     DEDA FCFA 
     DEDC EEBE 
0077 DEDE FE3A            DATA >FE3A,>CEF2,>FCF0,>C000    ;
     DEE0 CEF2 
     DEE2 FCF0 
     DEE4 C000 
0078 DEE6 0003     SPR17  DATA >0003,>0D31,>C5A1,>8181    ; Color 1
     DEE8 0D31 
     DEEA C5A1 
     DEEC 8181 
0079 DEEE 85A3            DATA >85A3,>8CB0,>C130,>0C03    ;
     DEF0 8CB0 
     DEF2 C130 
     DEF4 0C03 
0080 DEF6 00C0            DATA >00C0,>304C,>0305,>1141    ;
     DEF8 304C 
     DEFA 0305 
     DEFC 1141 
0081 DEFE 01C5            DATA >01C5,>310D,>030C,>30C0    ;
     DF00 310D 
     DF02 030C 
     DF04 30C0 
0082 DF06 000F     SPR18  DATA >000F,>1517,>3B3A,>7D6C    ; Color 15
     DF08 1517 
     DF0A 3B3A 
     DF0C 7D6C 
0083 DF0E 7D7D            DATA >7D7D,>3B3B,>1715,>0F00    ;
     DF10 3B3B 
     DF12 1715 
     DF14 0F00 
0084 DF16 00E0            DATA >00E0,>D0F0,>F8E8,>FC00    ;
     DF18 D0F0 
     DF1A F8E8 
     DF1C FC00 
0085 DF1E FC74            DATA >FC74,>F8B8,>F0D0,>E000    ;
     DF20 F8B8 
     DF22 F0D0 
     DF24 E000 
0086 DF26 1F10     SPR19  DATA >1F10,>2A28,>4445,>8293    ; Color 1
     DF28 2A28 
     DF2A 4445 
     DF2C 8293 
0087 DF2E 8282            DATA >8282,>4444,>282A,>101F    ;
     DF30 4444 
     DF32 282A 
     DF34 101F 
0088 DF36 F010            DATA >F010,>2808,>0414,>02FE    ;
     DF38 2808 
     DF3A 0414 
     DF3C 02FE 
0089 DF3E 028A            DATA >028A,>0444,>0828,>10F0    ;
     DF40 0444 
     DF42 0828 
     DF44 10F0 
0090 DF46 0003     SPR20  DATA >0003,>0F3F,>4F73,>5C7F    ; Color 15
     DF48 0F3F 
     DF4A 4F73 
     DF4C 5C7F 
0091 DF4E 7D77            DATA >7D77,>5F3F,>0D03,>0000    ;
     DF50 5F3F 
     DF52 0D03 
     DF54 0000 
0092 DF56 00C0            DATA >00C0,>F07C,>F2CE,>3A5E    ;
     DF58 F07C 
     DF5A F2CE 
     DF5C 3A5E 
0093 DF5E 7E7E            DATA >7E7E,>7A5C,>7040,>0000    ;
     DF60 7A5C 
     DF62 7040 
     DF64 0000 
0094 DF66 030C     SPR21  DATA >030C,>30C0,>B08C,>A380    ; Color 1
     DF68 30C0 
     DF6A B08C 
     DF6C A380 
0095 DF6E 8288            DATA >8288,>A0C0,>320C,>0300    ;
     DF70 A0C0 
     DF72 320C 
     DF74 0300 
0096 DF76 C030            DATA >C030,>0C83,>0D31,>C5A1    ;
     DF78 0C83 
     DF7A 0D31 
     DF7C C5A1 
0097 DF7E 8181            DATA >8181,>85A3,>8CB0,>C000    ;
     DF80 85A3 
     DF82 8CB0 
     DF84 C000 
0098 DF86 0007     SPR22  DATA >0007,>0B0F,>1D1F,>2E3F    ; Color 15
     DF88 0B0F 
     DF8A 1D1F 
     DF8C 2E3F 
0099 DF8E 003F            DATA >003F,>171F,>0F0B,>0700    ;
     DF90 171F 
     DF92 0F0B 
     DF94 0700 
0100 DF96 00F0            DATA >00F0,>A8E8,>DCDC,>BEBE    ;
     DF98 A8E8 
     DF9A DCDC 
     DF9C BEBE 
0101 DF9E 36BE            DATA >36BE,>5CDC,>E8A8,>F000    ;
     DFA0 5CDC 
     DFA2 E8A8 
     DFA4 F000 
0102 DFA6 0F08     SPR23  DATA >0F08,>1410,>2220,>5140    ; Color 1
     DFA8 1410 
     DFAA 2220 
     DFAC 5140 
0103 DFAE 7F40            DATA >7F40,>2820,>1014,>080F    ;
     DFB0 2820 
     DFB2 1014 
     DFB4 080F 
0104 DFB6 F808            DATA >F808,>5414,>2222,>4141    ;
     DFB8 5414 
     DFBA 2222 
     DFBC 4141 
0105 DFBE C941            DATA >C941,>A222,>1454,>08F8    ;
     DFC0 A222 
     DFC2 1454 
     DFC4 08F8 
0106               ****************************************
0107               * Scissors
0108               ****************************************
0109 DFC6 1C22     SPR24  DATA >1C22,>5D55,>5D21,>1C02
     DFC8 5D55 
     DFCA 5D21 
     DFCC 1C02 
0110 DFCE 021C            DATA >021C,>215D,>555D,>221C
     DFD0 215D 
     DFD2 555D 
     DFD4 221C 
0111 DFD6 0004            DATA >0004,>0A12,>2448,>9020
     DFD8 0A12 
     DFDA 2448 
     DFDC 9020 
0112 DFDE 2090            DATA >2090,>4824,>120A,>0400
     DFE0 4824 
     DFE2 120A 
     DFE4 0400 
0113 DFE6 001C     SPR25  DATA >001C,>2222,>221E,>0301
     DFE8 2222 
     DFEA 221E 
     DFEC 0301 
0114 DFEE 0103            DATA >0103,>1E22,>2222,>1C00
     DFF0 1E22 
     DFF2 2222 
     DFF4 1C00 
0115 DFF6 0000            DATA >0000,>040C,>1830,>60C0
     DFF8 040C 
     DFFA 1830 
     DFFC 60C0 
0116 DFFE C060            DATA >C060,>3018,>0C04,>0000
     E000 3018 
     E002 0C04 
     E004 0000 
0117 E006 0038     SPR26  DATA >0038,>44AA,>BABA,>4138
     E008 44AA 
     E00A BABA 
     E00C 4138 
0118 E00E 3841            DATA >3841,>AABA,>BA44,>3800
     E010 AABA 
     E012 BA44 
     E014 3800 
0119 E016 0000            DATA >0000,>020D,>1166,>8830
     E018 020D 
     E01A 1166 
     E01C 8830 
0120 E01E 3088            DATA >3088,>6611,>0D02,>0000
     E020 6611 
     E022 0D02 
     E024 0000 
0121 E026 0000     SPR27  DATA >0000,>3844,>4444,>3E07
     E028 3844 
     E02A 4444 
     E02C 3E07 
0122 E02E 073E            DATA >073E,>4444,>4438,>0000
     E030 4444 
     E032 4438 
     E034 0000 
0123 E036 0000            DATA >0000,>0002,>0E18,>70C0
     E038 0002 
     E03A 0E18 
     E03C 70C0 
0124 E03E C070            DATA >C070,>180E,>0200,>0000
     E040 180E 
     E042 0200 
     E044 0000 
0125 E046 0000     SPR28  DATA >0000,>3844,>BAAA,>BB40
     E048 3844 
     E04A BAAA 
     E04C BB40 
0126 E04E 40BB            DATA >40BB,>AABA,>4438,>0000
     E050 AABA 
     E052 4438 
     E054 0000 
0127 E056 0000            DATA >0000,>0000,>0000,>FE01
     E058 0000 
     E05A 0000 
     E05C FE01 
0128 E05E 01FE            DATA >01FE,>0000,>0000,>0000
     E060 0000 
     E062 0000 
     E064 0000 
0129 E066 0000     SPR29  DATA >0000,>0038,>4444,>443F
     E068 0038 
     E06A 4444 
     E06C 443F 
0130 E06E 3F44            DATA >3F44,>4444,>3800,>0000
     E070 4444 
     E072 3800 
     E074 0000 
0131 E076 0000            DATA >0000,>0000,>0000,>00FE
     E078 0000 
     E07A 0000 
     E07C 00FE 
0132 E07E FE00            DATA >FE00,>0000,>0000,>0000
     E080 0000 
     E082 0000 
     E084 0000 
0133 E086 0038     SPR30  DATA >0038,>44BA,>BAAA,>4138
     E088 44BA 
     E08A BAAA 
     E08C 4138 
0134 E08E 3841            DATA >3841,>BABA,>AA44,>3800
     E090 BABA 
     E092 AA44 
     E094 3800 
0135 E096 0000            DATA >0000,>0205,>1962,>8C30
     E098 0205 
     E09A 1962 
     E09C 8C30 
0136 E09E 308C            DATA >308C,>6219,>0502,>0000
     E0A0 6219 
     E0A2 0502 
     E0A4 0000 
0137 E0A6 0000     SPR31  DATA >0000,>3844,>4444,>3E07
     E0A8 3844 
     E0AA 4444 
     E0AC 3E07 
0138 E0AE 073E            DATA >073E,>4444,>4438,>0000
     E0B0 4444 
     E0B2 4438 
     E0B4 0000 
0139 E0B6 0000            DATA >0000,>0002,>061C,>70C0
     E0B8 0002 
     E0BA 061C 
     E0BC 70C0 
0140 E0BE C070            DATA >C070,>1C06,>0200,>0000
     E0C0 1C06 
     E0C2 0200 
     E0C4 0000 
0141               ****************************************
0142               * Tank
0143               ****************************************
0144 E0C6 03F4     SPR32  DATA >03F4,>F809,>0AF8,>F804
     E0C8 F809 
     E0CA 0AF8 
     E0CC F804 
0145 E0CE 04F2            DATA >04F2,>F101,>01F1,>F101
     E0D0 F101 
     E0D2 01F1 
     E0D4 F101 
0146 E0D6 C02F            DATA >C02F,>1F90,>501F,>1F20
     E0D8 1F90 
     E0DA 501F 
     E0DC 1F20 
0147 E0DE 204F            DATA >204F,>8F80,>808F,>8F80
     E0E0 8F80 
     E0E2 808F 
     E0E4 8F80 
0148 E0E6 0003     SPR33  DATA >0003,>07F6,>B507,>07F7
     E0E8 07F6 
     E0EA B507 
     E0EC 07F7 
0149 E0EE B301            DATA >B301,>00F0,>B000,>0000
     E0F0 00F0 
     E0F2 B000 
     E0F4 0000 
0150 E0F6 00C0            DATA >00C0,>E06F,>ADE0,>E0EF
     E0F8 E06F 
     E0FA ADE0 
     E0FC E0EF 
0151 E0FE CD80            DATA >CD80,>000F,>0D00,>0000
     E100 000F 
     E102 0D00 
     E104 0000 
0152 E106 0304     SPR34  DATA >0304,>F8F8,>0808,>F8F4
     E108 F8F8 
     E10A 0808 
     E10C F8F4 
0153 E10E 0402            DATA >0402,>F1F1,>0103,>F303
     E110 F1F1 
     E112 0103 
     E114 F303 
0154 E116 C020            DATA >C020,>1F9F,>5050,>9F2F
     E118 1F9F 
     E11A 5050 
     E11C 9F2F 
0155 E11E 2040            DATA >2040,>8F8F,>8000,>0F00
     E120 8F8F 
     E122 8000 
     E124 0F00 
0156 E126 0003     SPR35  DATA >0003,>0707,>F7B7,>0703
     E128 0707 
     E12A F7B7 
     E12C 0703 
0157 E12E F3B1            DATA >F3B1,>0000,>F0B0,>0000
     E130 0000 
     E132 F0B0 
     E134 0000 
0158 E136 00C0            DATA >00C0,>E060,>AFAD,>60C0
     E138 E060 
     E13A AFAD 
     E13C 60C0 
0159 E13E CF8D            DATA >CF8D,>0000,>0F0D,>0000
     E140 0000 
     E142 0F0D 
     E144 0000 
0160 E146 0304     SPR36  DATA >0304,>08F8,>F80A,>09F4
     E148 08F8 
     E14A F80A 
     E14C 09F4 
0161 E14E F402            DATA >F402,>01F1,>F101,>0101
     E150 01F1 
     E152 F101 
     E154 0101 
0162 E156 C020            DATA >C020,>101F,>1F50,>902F
     E158 101F 
     E15A 1F50 
     E15C 902F 
0163 E15E 2F40            DATA >2F40,>808F,>8F80,>8080
     E160 808F 
     E162 8F80 
     E164 8080 
0164 E166 0003     SPR37  DATA >0003,>B707,>07F5,>B603
     E168 B707 
     E16A 07F5 
     E16C B603 
0165 E16E 03F1            DATA >03F1,>B000,>00F0,>B000
     E170 B000 
     E172 00F0 
     E174 B000 
0166 E176 00C0            DATA >00C0,>EDE0,>E0AF,>6DC0
     E178 EDE0 
     E17A E0AF 
     E17C 6DC0 
0167 E17E C08F            DATA >C08F,>0D00,>000F,>0D00
     E180 0D00 
     E182 000F 
     E184 0D00 
0168 E186 03F4     SPR38  DATA >03F4,>0809,>FAFA,>0904
     E188 0809 
     E18A FAFA 
     E18C 0904 
0169 E18E F4F2            DATA >F4F2,>0101,>F1F0,>0000
     E190 0101 
     E192 F1F0 
     E194 0000 
0170 E196 C02F            DATA >C02F,>1010,>1F1F,>1020
     E198 1010 
     E19A 1F1F 
     E19C 1020 
0171 E19E 2F4F            DATA >2F4F,>8080,>8FCF,>C0C0
     E1A0 8080 
     E1A2 8FCF 
     E1A4 C0C0 
0172 E1A6 0003     SPR39  DATA >0003,>F7B6,>0505,>F6B3
     E1A8 F7B6 
     E1AA 0505 
     E1AC F6B3 
0173 E1AE 0301            DATA >0301,>F0B0,>0000,>F000
     E1B0 F0B0 
     E1B2 0000 
     E1B4 F000 
0174 E1B6 00C0            DATA >00C0,>EFED,>E0E0,>EFCD
     E1B8 EFED 
     E1BA E0E0 
     E1BC EFCD 
0175 E1BE C080            DATA >C080,>0F0D,>0000,>0F00
     E1C0 0F0D 
     E1C2 0000 
     E1C4 0F00 
0176               ****************************************
0177               * Swiss army knife
0178               ****************************************
0179 E1C6 0000     SPR40  DATA >0000,>0000,>0000,>0000
     E1C8 0000 
     E1CA 0000 
     E1CC 0000 
0180 E1CE 6098            DATA >6098,>6619,>0601,>0000
     E1D0 6619 
     E1D2 0601 
     E1D4 0000 
0181 E1D6 387C            DATA >387C,>7C6C,>446C,>7C7C
     E1D8 7C6C 
     E1DA 446C 
     E1DC 7C7C 
0182 E1DE 7C7C            DATA >7C7C,>7CFC,>7CFC,>6C38
     E1E0 7CFC 
     E1E2 7CFC 
     E1E4 6C38 
0183 E1E6 0000     SPR41  DATA >0000,>0000,>0000,>0060
     E1E8 0000 
     E1EA 0000 
     E1EC 0060 
0184 E1EE 9866            DATA >9866,>9966,>1906,>0100
     E1F0 9966 
     E1F2 1906 
     E1F4 0100 
0185 E1F6 4482            DATA >4482,>8292,>BA92,>8282
     E1F8 8292 
     E1FA BA92 
     E1FC 8282 
0186 E1FE 8282            DATA >8282,>8202,>8202,>9244
     E200 8202 
     E202 8202 
     E204 9244 
0187 E206 0000     SPR42  DATA >0000,>0002,>0505,>0202
     E208 0002 
     E20A 0505 
     E20C 0202 
0188 E20E 0101            DATA >0101,>0000,>0000,>0000
     E210 0000 
     E212 0000 
     E214 0000 
0189 E216 387C            DATA >387C,>7C6C,>446C,>FCFC
     E218 7C6C 
     E21A 446C 
     E21C FCFC 
0190 E21E 7C7C            DATA >7C7C,>FCFC,>7C7C,>6C38
     E220 FCFC 
     E222 7C7C 
     E224 6C38 
0191 E226 0000     SPR43  DATA >0000,>0205,>0A0A,>0505
     E228 0205 
     E22A 0A0A 
     E22C 0505 
0192 E22E 0202            DATA >0202,>0100,>0000,>0000
     E230 0100 
     E232 0000 
     E234 0000 
0193 E236 4482            DATA >4482,>8292,>BA92,>0202
     E238 8292 
     E23A BA92 
     E23C 0202 
0194 E23E 8282            DATA >8282,>0282,>8282,>9244
     E240 0282 
     E242 8282 
     E244 9244 
0195 E246 0000     SPR44  DATA >0000,>0000,>0000,>0000
     E248 0000 
     E24A 0000 
     E24C 0000 
0196 E24E 0000            DATA >0000,>0000,>0000,>0000
     E250 0000 
     E252 0000 
     E254 0000 
0197 E256 387C            DATA >387C,>7C6C,>446C,>7C7C
     E258 7C6C 
     E25A 446C 
     E25C 7C7C 
0198 E25E 7C7C            DATA >7C7C,>7C7C,>7C7C,>6C38
     E260 7C7C 
     E262 7C7C 
     E264 6C38 
0199 E266 0000     SPR45  DATA >0000,>0000,>0000,>0000
     E268 0000 
     E26A 0000 
     E26C 0000 
0200 E26E 0000            DATA >0000,>0000,>0000,>0000
     E270 0000 
     E272 0000 
     E274 0000 
0201 E276 4482            DATA >4482,>8292,>BA92,>8282
     E278 8292 
     E27A BA92 
     E27C 8282 
0202 E27E 8282            DATA >8282,>8282,>8282,>9244
     E280 8282 
     E282 8282 
     E284 9244 
0203 E286 0000     SPR46  DATA >0000,>0002,>0505,>0202
     E288 0002 
     E28A 0505 
     E28C 0202 
0204 E28E 0101            DATA >0101,>0000,>0000,>0000
     E290 0000 
     E292 0000 
     E294 0000 
0205 E296 387C            DATA >387C,>7C6C,>446C,>FCFC
     E298 7C6C 
     E29A 446C 
     E29C FCFC 
0206 E29E 7C7C            DATA >7C7C,>FCFC,>7C7C,>6C38
     E2A0 FCFC 
     E2A2 7C7C 
     E2A4 6C38 
0207 E2A6 0000     SPR47  DATA >0000,>0205,>0A0A,>0505
     E2A8 0205 
     E2AA 0A0A 
     E2AC 0505 
0208 E2AE 0202            DATA >0202,>0101,>0000,>0000
     E2B0 0101 
     E2B2 0000 
     E2B4 0000 
0209 E2B6 4482            DATA >4482,>8292,>BA92,>0202
     E2B8 8292 
     E2BA BA92 
     E2BC 0202 
0210 E2BE 8282            DATA >8282,>0202,>8282,>9244
     E2C0 0202 
     E2C2 8282 
     E2C4 9244 
0211               ****************************************
0212               * Gifts (ball, bonus, energy)
0213               ****************************************
0214 E2C6 00C4     SPR48  DATA >00C4,>AAAA,>CEAA,>AACA
     E2C8 AAAA 
     E2CA CEAA 
     E2CC AACA 
0215 E2CE 000F            DATA >000F,>0F07,>0503,>0000
     E2D0 0F07 
     E2D2 0503 
     E2D4 0000 
0216 E2D6 0090            DATA >0090,>9090,>9496,>92DB
     E2D8 9090 
     E2DA 9496 
     E2DC 92DB 
0217 E2DE 03FF            DATA >03FF,>FDEA,>56AC,>F000
     E2E0 FDEA 
     E2E2 56AC 
     E2E4 F000 
0218 E2E6 E394     SPR49  DATA >E394,>E494,>E300,>494A
     E2E8 E494 
     E2EA E300 
     E2EC 494A 
0219 E2EE 4948            DATA >4948,>3300,>0001,>0309
     E2F0 3300 
     E2F2 0001 
     E2F4 0309 
0220 E2F6 24B4            DATA >24B4,>BCAC,>2400,>C404
     E2F8 BCAC 
     E2FA 2400 
     E2FC C404 
0221 E2FE 9F44            DATA >9F44,>9410,>7C10,>9000
     E300 9410 
     E302 7C10 
     E304 9000 
0222 E306 1F00     SPR50  DATA >1F00,>4B68,>6B5A,>5A4B
     E308 4B68 
     E30A 6B5A 
     E30C 5A4B 
0223 E30E 021A            DATA >021A,>001F,>001F,>001F
     E310 001F 
     E312 001F 
     E314 001F 
0224 E316 F800            DATA >F800,>F800,>B840,>4C92
     E318 F800 
     E31A B840 
     E31C 4C92 
0225 E31E 9056            DATA >9056,>12EC,>00F8,>00F8
     E320 12EC 
     E322 00F8 
     E324 00F8 
0226               ****************************************
0227               * Press fire
0228               ****************************************
0229 E326 E794     SPR51  DATA >E794,>9494,>9494,>94E7
     E328 9494 
     E32A 9494 
     E32C 94E7 
0230 E32E 8484            DATA >8484,>8484,>8484,>8400
     E330 8484 
     E332 8484 
     E334 8400 
0231 E336 3CA1            DATA >3CA1,>A1A1,>A1A1,>A138
     E338 A1A1 
     E33A A1A1 
     E33C A138 
0232 E33E A0A0            DATA >A0A0,>A0A0,>A0A1,>BC00
     E340 A0A0 
     E342 A0A1 
     E344 BC00 
0233 E346 C629     SPR52  DATA >C629,>0808,>0808,>08C6
     E348 0808 
     E34A 0808 
     E34C 08C6 
0234 E34E 2121            DATA >2121,>2121,>2129,>C600
     E350 2121 
     E352 2129 
     E354 C600 
0235 E356 0302            DATA >0302,>0202,>0202,>0203
     E358 0202 
     E35A 0202 
     E35C 0203 
0236 E35E 0202            DATA >0202,>0202,>0202,>0200
     E360 0202 
     E362 0202 
     E364 0200 
0237 E366 DD09     SPR53  DATA >DD09,>0909,>0909,>0989
     E368 0909 
     E36A 0909 
     E36C 0989 
0238 E36E 0909            DATA >0909,>0909,>0909,>1D00
     E370 0909 
     E372 0909 
     E374 1D00 
0239 E376 CF28            DATA >CF28,>2828,>2828,>28CE
     E378 2828 
     E37A 2828 
     E37C 28CE 
0240 E37E 2828            DATA >2828,>2828,>2828,>2F00
     E380 2828 
     E382 2828 
     E384 2F00 
0241               ****************************************
0242               * Game over
0243               ****************************************
0244 E386 44AA     SPR54  DATA >44AA,>8A8A,>8A8A,>8AEE
     E388 8A8A 
     E38A 8A8A 
     E38C 8AEE 
0245 E38E AAAA            DATA >AAAA,>AAAA,>AAAA,>4A00
     E390 AAAA 
     E392 AAAA 
     E394 4A00 
0246 E396 AEE8            DATA >AEE8,>A8A8,>A8A8,>A8AC
     E398 A8A8 
     E39A A8A8 
     E39C A8AC 
0247 E39E A8A8            DATA >A8A8,>A8A8,>A8A8,>AE00
     E3A0 A8A8 
     E3A2 A8A8 
     E3A4 AE00 
0248 E3A6 4AAA     SPR55  DATA >4AAA,>AAAA,>AAAA,>AAAA
     E3A8 AAAA 
     E3AA AAAA 
     E3AC AAAA 
0249 E3AE AAAA            DATA >AAAA,>AAAA,>AAA4,>4400
     E3B0 AAAA 
     E3B2 AAA4 
     E3B4 4400 
0250 E3B6 EC8A            DATA >EC8A,>8A8A,>8A8A,>8ACE
     E3B8 8A8A 
     E3BA 8A8A 
     E3BC 8ACE 
0251 E3BE 8C8A            DATA >8C8A,>8A8A,>8A8A,>EA00
     E3C0 8A8A 
     E3C2 8A8A 
     E3C4 EA00 
**** **** ****     > bouncy.a99
3480                      COPY "logo.a99"
**** **** ****     > logo.a99
0001 E3C6 F1F1     LCOL0   DATA >F1F1,>F1F1,>F1F1,>F1F1
     E3C8 F1F1 
     E3CA F1F1 
     E3CC F1F1 
0002 E3CE 1991     LCOL1   DATA >1991,>9191,>9191,>9191
     E3D0 9191 
     E3D2 9191 
     E3D4 9191 
0003 E3D6 9090     LCOL2   DATA >9090,>9019,>1919,>1998
     E3D8 9019 
     E3DA 1919 
     E3DC 1998 
0004 E3DE 9090     LCOL3   DATA >9090,>9110,>1010,>9190
     E3E0 9110 
     E3E2 1010 
     E3E4 9190 
0005 E3E6 9F9F     LCOL4   DATA >9F9F,>1919,>1919,>9090
     E3E8 1919 
     E3EA 1919 
     E3EC 9090 
0006 E3EE 9191     LCOL5   DATA >9191,>9191,>9191,>9191
     E3F0 9191 
     E3F2 9191 
     E3F4 9191 
0007 E3F6 1010     LCOL6   DATA >1010,>1010,>1010,>B11B
     E3F8 1010 
     E3FA 1010 
     E3FC B11B 
0008 E3FE 1010     LCOL7   DATA >1010,>1010,>1B1B,>B0B0
     E400 1010 
     E402 1B1B 
     E404 B0B0 
0009 E406 1010     LCOL8   DATA >1010,>1010,>1B1B,>B0B0
     E408 1010 
     E40A 1B1B 
     E40C B0B0 
0010 E40E 1010     LCOL9   DATA >1010,>1010,>1010,>B1B1
     E410 1010 
     E412 1010 
     E414 B1B1 
0011 E416 1010     LCOL10  DATA >1010,>1010,>1013,>1313
     E418 1010 
     E41A 1013 
     E41C 1313 
0012 E41E 1010     LCOL11  DATA >1010,>1010,>1030,>3030
     E420 1010 
     E422 1030 
     E424 3030 
0013 E426 1010     LCOL12  DATA >1010,>1010,>1013,>1313
     E428 1010 
     E42A 1013 
     E42C 1313 
0014 E42E 1031     LCOL13  DATA >1031,>1313,>1313,>1313
     E430 1313 
     E432 1313 
     E434 1313 
0015 E436 1010     LCOL14  DATA >1010,>3113,>1313,>1313
     E438 3113 
     E43A 1313 
     E43C 1313 
0016 E43E 1010     LCOL15  DATA >1010,>1010,>1515,>1515
     E440 1010 
     E442 1515 
     E444 1515 
0017 E446 1010     LCOL16  DATA >1010,>1010,>5150,>5050
     E448 1010 
     E44A 5150 
     E44C 5050 
0018 E44E 1010     LCOL17  DATA >1010,>1010,>1050,>5050
     E450 1010 
     E452 1050 
     E454 5050 
0019 E456 1010     LCOL18  DATA >1010,>1051,>5115,>1515
     E458 1051 
     E45A 5115 
     E45C 1515 
0020 E45E 1010     LCOL19  DATA >1010,>5151,>1515,>1515
     E460 5151 
     E462 1515 
     E464 1515 
0021 E466 1010     LCOL20  DATA >1010,>1010,>10D1,>1DD0
     E468 1010 
     E46A 10D1 
     E46C 1DD0 
0022 E46E 1010     LCOL21  DATA >1010,>1010,>D0D0,>D0D0
     E470 1010 
     E472 D0D0 
     E474 D0D0 
0023 E476 1010     LCOL22  DATA >1010,>1010,>D11D,>D0D0
     E478 1010 
     E47A D11D 
     E47C D0D0 
0024 E47E 1010     LCOL23  DATA >1010,>1010,>1010,>D1D1
     E480 1010 
     E482 1010 
     E484 D1D1 
0025 E486 1010     LCOL24  DATA >1010,>1010,>1010,>9119
     E488 1010 
     E48A 1010 
     E48C 9119 
0026 E48E 1010     LCOL25  DATA >1010,>1010,>9191,>1919
     E490 1010 
     E492 9191 
     E494 1919 
0027 E496 1010     LCOL26  DATA >1010,>1010,>9119,>1919
     E498 1010 
     E49A 9119 
     E49C 1919 
0028 E49E 1010     LCOL27  DATA >1010,>1010,>1091,>9119
     E4A0 1010 
     E4A2 1091 
     E4A4 9119 
0029 E4A6 6161     LCOL28  DATA >6161,>6161,>6161,>6161
     E4A8 6161 
     E4AA 6161 
     E4AC 6161 
0030 E4AE 6860     LCOL29  DATA >6860,>6016,>1660,>6060
     E4B0 6016 
     E4B2 1660 
     E4B4 6060 
0031 E4B6 6061     LCOL30  DATA >6061,>1010,>1010,>6116
     E4B8 1010 
     E4BA 1010 
     E4BC 6116 
0032 E4BE 6816     LCOL31  DATA >6816,>6161,>6161,>6161
     E4C0 6161 
     E4C2 6161 
     E4C4 6161 
0033 E4C6 1616     LCOL32  DATA >1616,>1660,>6016,>1616
     E4C8 1660 
     E4CA 6016 
     E4CC 1616 
0034 E4CE 1A1A     LCOL33  DATA >1A1A,>1A1A,>1A1A,>1A1A
     E4D0 1A1A 
     E4D2 1A1A 
     E4D4 1A1A 
0035 E4D6 A01A     LCOL34  DATA >A01A,>1AA1,>A1A1,>A11A
     E4D8 1AA1 
     E4DA A1A1 
     E4DC A11A 
0036 E4DE 1010     LCOL35  DATA >1010,>1010,>1010,>10A1
     E4E0 1010 
     E4E2 1010 
     E4E4 10A1 
0037 E4E6 A1A1     LCOL36  DATA >A1A1,>A1A1,>A11A,>1AA0
     E4E8 A1A1 
     E4EA A11A 
     E4EC 1AA0 
0038 E4EE 1A1A     LCOL37  DATA >1A1A,>1A1A,>1A1A,>1A1A
     E4F0 1A1A 
     E4F2 1A1A 
     E4F4 1A1A 
0039 E4F6 C1C1     LCOL38  DATA >C1C1,>1C1C,>1C1C,>1C1C
     E4F8 1C1C 
     E4FA 1C1C 
     E4FC 1C1C 
0040 E4FE C2C0     LCOL39  DATA >C2C0,>C0C0,>C0C0,>C0C0
     E500 C0C0 
     E502 C0C0 
     E504 C0C0 
0041 E506 C1C1     LCOL40  DATA >C1C1,>C1C1,>C1C1,>1CC1
     E508 C1C1 
     E50A C1C1 
     E50C 1CC1 
0042 E50E C1C1     LCOL41  DATA >C1C1,>C1C1,>C1C1,>C11C
     E510 C1C1 
     E512 C1C1 
     E514 C11C 
0043 E516 4141     LCOL42  DATA >4141,>4141,>1010,>1010
     E518 4141 
     E51A 1010 
     E51C 1010 
0044 E51E 4540     LCOL43  DATA >4540,>4040,>4040,>4040
     E520 4040 
     E522 4040 
     E524 4040 
0045 E526 4040     LCOL44  DATA >4040,>4040,>4014,>1414
     E528 4040 
     E52A 4014 
     E52C 1414 
0046 E52E 4514     LCOL45  DATA >4514,>1441,>4141,>4141
     E530 1441 
     E532 4141 
     E534 4141 
0047 E536 5454     LCOL46  DATA >5454,>5414,>1414,>1414
     E538 5414 
     E53A 1414 
     E53C 1414 
0048 E53E 1D1D     LCOL47  DATA >1D1D,>1D1D,>1D1D,>1D1D
     E540 1D1D 
     E542 1D1D 
     E544 1D1D 
0049 E546 D0D0     LCOL48  DATA >D0D0,>D0D0,>D0D0,>D0D0
     E548 D0D0 
     E54A D0D0 
     E54C D0D0 
0050 E54E 1D1D     LCOL49  DATA >1D1D,>D1D1,>D110,>10D1
     E550 D1D1 
     E552 D110 
     E554 10D1 
0051 E556 D0D0     LCOL50  DATA >D0D0,>D0D0,>D010,>10D1
     E558 D0D0 
     E55A D010 
     E55C 10D1 
0052 E55E 1D1D     LCOL51  DATA >1D1D,>1D1D,>D110,>D1D1
     E560 1D1D 
     E562 D110 
     E564 D1D1 
0053 E566 6110     LCOL52  DATA >6110,>1010,>1010,>1010
     E568 1010 
     E56A 1010 
     E56C 1010 
0054 E56E 6016     LCOL53  DATA >6016,>1661,>6161,>1010
     E570 1661 
     E572 6161 
     E574 1010 
0055 E576 1660     LCOL54  DATA >1660,>6060,>6060,>1616
     E578 6060 
     E57A 6060 
     E57C 1616 
0056 E57E 6116     LCOL55  DATA >6116,>1616,>6060,>6060
     E580 1616 
     E582 6060 
     E584 6060 
0057 E586 1616     LCOL56  DATA >1616,>1616,>1616,>1616
     E588 1616 
     E58A 1616 
     E58C 1616 
0058 E58E 6110     LCOL57  DATA >6110,>1010,>1010,>1010
     E590 1010 
     E592 1010 
     E594 1010 
0059 E596 6110     LCOL58  DATA >6110,>1010,>1010,>1010
     E598 1010 
     E59A 1010 
     E59C 1010 
0060 E59E 6016     LCOL59  DATA >6016,>1010,>1010,>1010
     E5A0 1010 
     E5A2 1010 
     E5A4 1010 
0061 E5A6 6016     LCOL60  DATA >6016,>1010,>1010,>1010
     E5A8 1010 
     E5AA 1010 
     E5AC 1010 
0062 E5AE 6110     LCOL61  DATA >6110,>1010,>1010,>1010
     E5B0 1010 
     E5B2 1010 
     E5B4 1010 
0063 E5B6 1AA1     LCOL62  DATA >1AA1,>A110,>1010,>1010
     E5B8 A110 
     E5BA 1010 
     E5BC 1010 
0064 E5BE A0A0     LCOL63  DATA >A0A0,>A010,>1010,>1010
     E5C0 A010 
     E5C2 1010 
     E5C4 1010 
0065 E5C6 1A1A     LCOL64  DATA >1A1A,>A110,>1010,>1010
     E5C8 A110 
     E5CA 1010 
     E5CC 1010 
0066 E5CE 1CC1     LCOL65  DATA >1CC1,>C110,>1010,>1010
     E5D0 C110 
     E5D2 1010 
     E5D4 1010 
0067 E5D6 C0C0     LCOL66  DATA >C0C0,>1C10,>1010,>1010
     E5D8 1C10 
     E5DA 1010 
     E5DC 1010 
0068 E5DE 1CC1     LCOL67  DATA >1CC1,>C1C1,>C110,>1010
     E5E0 C1C1 
     E5E2 C110 
     E5E4 1010 
0069 E5E6 1C1C     LCOL68  DATA >1C1C,>C110,>1010,>1010
     E5E8 C110 
     E5EA 1010 
     E5EC 1010 
0070 E5EE 4141     LCOL69  DATA >4141,>1010,>1010,>1010
     E5F0 1010 
     E5F2 1010 
     E5F4 1010 
0071 E5F6 4110     LCOL70  DATA >4110,>1010,>1010,>1010
     E5F8 1010 
     E5FA 1010 
     E5FC 1010 
0072 E5FE 1414     LCOL71  DATA >1414,>1010,>1010,>1010
     E600 1010 
     E602 1010 
     E604 1010 
0073 E606 1414     LCOL72  DATA >1414,>1414,>1010,>1010
     E608 1414 
     E60A 1010 
     E60C 1010 
0074 E60E 1414     LCOL73  DATA >1414,>4040,>4041,>1010
     E610 4040 
     E612 4041 
     E614 1010 
0075 E616 D110     LCOL74  DATA >D110,>4141,>4141,>1010
     E618 4141 
     E61A 4141 
     E61C 1010 
0076 E61E D01D     LCOL75  DATA >D01D,>D110,>1010,>1010
     E620 D110 
     E622 1010 
     E624 1010 
0077 E626 D0D0     LCOL76  DATA >D0D0,>D010,>1010,>1010
     E628 D010 
     E62A 1010 
     E62C 1010 
0078 E62E 1DD1     LCOL77  DATA >1DD1,>1010,>1010,>1010
     E630 1010 
     E632 1010 
     E634 1010 
0079 E636 6060     LCOL78  DATA >6060,>1616,>1616,>6161
     E638 1616 
     E63A 1616 
     E63C 6161 
0080 E63E 6060     LCOL79  DATA >6060,>6060,>6060,>6060
     E640 6060 
     E642 6060 
     E644 6060 
0081 E646 1616     LCOL80  DATA >1616,>6060,>6060,>6060
     E648 6060 
     E64A 6060 
     E64C 6060 
0082 E64E 6F6F     LCOL81  DATA >6F6F,>6F6F,>6F6F,>6F16
     E650 6F6F 
     E652 6F6F 
     E654 6F16 
0083 E656 1616     LCOL82  DATA >1616,>1661,>6161,>1010
     E658 1661 
     E65A 6161 
     E65C 1010 
0084 E65E 9191     LCOL83  DATA >9191,>9191,>9191,>9191
     E660 9191 
     E662 9191 
     E664 9191 
0085 E666 1091     LCOL84  DATA >1091,>1990,>9090,>9090
     E668 1990 
     E66A 9090 
     E66C 9090 
0086 E66E 1010     LCOL85  DATA >1010,>1090,>9090,>9090
     E670 1090 
     E672 9090 
     E674 9090 
0087 E676 1010     LCOL86  DATA >1010,>9190,>9F90,>9090
     E678 9190 
     E67A 9F90 
     E67C 9090 
0088 E67E 1010     LCOL87  DATA >1010,>1919,>9F9F,>9F9F
     E680 1919 
     E682 9F9F 
     E684 9F9F 
0089 E686 1010     LCOL88  DATA >1010,>1010,>9191,>9191
     E688 1010 
     E68A 9191 
     E68C 9191 
0090 E68E 8181     LCOL89  DATA >8181,>81F1,>9181,>8181
     E690 81F1 
     E692 9181 
     E694 8181 
0091 E696 8980     LCOL90  DATA >8980,>80F0,>9080,>8080
     E698 80F0 
     E69A 9080 
     E69C 8080 
0092 E69E 8181     LCOL91  DATA >8181,>81F1,>1918,>1818
     E6A0 81F1 
     E6A2 1918 
     E6A4 1818 
0093 E6A6 10B1     LCOL92  DATA >10B1,>B1F1,>B1B1,>B11B
     E6A8 B1F1 
     E6AA B1B1 
     E6AC B11B 
0094 E6AE 1BB0     LCOL93  DATA >1BB0,>B0F0,>B0B0,>B0BA
     E6B0 B0F0 
     E6B2 B0B0 
     E6B4 B0BA 
0095 E6B6 B0B0     LCOL94  DATA >B0B0,>B0F0,>B0B0,>B0B1
     E6B8 B0F0 
     E6BA B0B0 
     E6BC B0B1 
0096 E6BE B0B0     LCOL95  DATA >B0B0,>B0F0,>B0B0,>B01B
     E6C0 B0F0 
     E6C2 B0B0 
     E6C4 B01B 
0097 E6C6 B11B     LCOL96  DATA >B11B,>1B1F,>1B1B,>1B1B
     E6C8 1B1F 
     E6CA 1B1B 
     E6CC 1B1B 
0098 E6CE 1220     LCOL97  DATA >1220,>2010,>3121,>2121
     E6D0 2010 
     E6D2 3121 
     E6D4 2121 
0099 E6D6 2320     LCOL98  DATA >2320,>20F0,>3020,>2020
     E6D8 20F0 
     E6DA 3020 
     E6DC 2020 
0100 E6DE 1212     LCOL99  DATA >1212,>121F,>3121,>2121
     E6E0 121F 
     E6E2 3121 
     E6E4 2121 
0101 E6E6 1212     LCOL100 DATA >1212,>121F,>1312,>1220
     E6E8 121F 
     E6EA 1312 
     E6EC 1220 
0102 E6EE 1212     LCOL101 DATA >1212,>21F1,>3121,>2121
     E6F0 21F1 
     E6F2 3121 
     E6F4 2121 
0103 E6F6 1515     LCOL102 DATA >1515,>51F1,>5151,>5151
     E6F8 51F1 
     E6FA 5151 
     E6FC 5151 
0104 E6FE 5050     LCOL103 DATA >5050,>50F0,>5050,>5050
     E700 50F0 
     E702 5050 
     E704 5050 
0105 E706 1515     LCOL104 DATA >1515,>151F,>5015,>5054
     E708 151F 
     E70A 5015 
     E70C 5054 
0106 E70E 1515     LCOL105 DATA >1515,>151F,>1515,>1515
     E710 151F 
     E712 1515 
     E714 1515 
0107 E716 D1D1     LCOL106 DATA >D1D1,>D1F1,>1D1D,>1D1D
     E718 D1F1 
     E71A 1D1D 
     E71C 1D1D 
0108 E71E D0D0     LCOL107 DATA >D0D0,>D0F0,>D0D0,>D0D0
     E720 D0F0 
     E722 D0D0 
     E724 D0D0 
0109 E726 1D1D     LCOL108 DATA >1D1D,>1D1F,>1D1D,>1D1D
     E728 1D1F 
     E72A 1D1D 
     E72C 1D1D 
0110 E72E 1DD0     LCOL109 DATA >1DD0,>D0F0,>D0D0,>D0D0
     E730 D0F0 
     E732 D0D0 
     E734 D0D0 
0111 E736 1D1D     LCOL110 DATA >1D1D,>1D1F,>1D1D,>1D1D
     E738 1D1F 
     E73A 1D1D 
     E73C 1D1D 
0112 E73E 8180     LCOL111 DATA >8180,>80F0,>9080,>8018
     E740 80F0 
     E742 9080 
     E744 8018 
0113 E746 1818     LCOL112 DATA >1818,>81F1,>1918,>1818
     E748 81F1 
     E74A 1918 
     E74C 1818 
0114 E74E 1880     LCOL113 DATA >1880,>80F1,>9181,>8181
     E750 80F1 
     E752 9181 
     E754 8181 
0115 E756 1880     LCOL114 DATA >1880,>89F0,>9080,>1818
     E758 89F0 
     E75A 9080 
     E75C 1818 
0116 E75E 1081     LCOL115 DATA >1081,>181F,>1981,>1010
     E760 181F 
     E762 1981 
     E764 1010 
0117 E766 6116     LCOL116 DATA >6116,>1616,>1616,>1616
     E768 1616 
     E76A 1616 
     E76C 1616 
0118 E76E 1616     LCOL117 DATA >1616,>1616,>1616,>6161
     E770 1616 
     E772 1616 
     E774 6161 
0119 E776 1AA1     LCOL118 DATA >1AA1,>A1A1,>A1A1,>A110
     E778 A1A1 
     E77A A1A1 
     E77C A110 
0120 E77E A0A0     LCOL119 DATA >A0A0,>A0A0,>A0A0,>A0A0
     E780 A0A0 
     E782 A0A0 
     E784 A0A0 
0121 E786 AFAF     LCOL120 DATA >AFAF,>AFAF,>AFAF,>AF1A
     E788 AFAF 
     E78A AFAF 
     E78C AF1A 
0122 E78E A1A1     LCOL121 DATA >A1A1,>A1A1,>A11A,>1010
     E790 A1A1 
     E792 A11A 
     E794 1010 
0123 E796 1C1C     LCOL122 DATA >1C1C,>1C1C,>1C1C,>1C1C
     E798 1C1C 
     E79A 1C1C 
     E79C 1C1C 
0124 E79E C11C     LCOL123 DATA >C11C,>1CC0,>C0C0,>C01C
     E7A0 1CC0 
     E7A2 C0C0 
     E7A4 C01C 
0125 E7A6 C0C0     LCOL124 DATA >C0C0,>C0C0,>C0C0,>1CC1
     E7A8 C0C0 
     E7AA C0C0 
     E7AC 1CC1 
0126 E7AE 1041     LCOL125 DATA >1041,>4141,>4141,>4141
     E7B0 4141 
     E7B2 4141 
     E7B4 4141 
0127 E7B6 1414     LCOL126 DATA >1414,>4040,>4040,>4040
     E7B8 4040 
     E7BA 4040 
     E7BC 4040 
0128 E7BE 1414     LCOL127 DATA >1414,>1414,>1414,>1414
     E7C0 1414 
     E7C2 1414 
     E7C4 1414 
0129 E7C6 4141     LCOL128 DATA >4141,>4141,>4141,>1414
     E7C8 4141 
     E7CA 4141 
     E7CC 1414 
0130 E7CE 1D1D     LCOL129 DATA >1D1D,>1D1D,>1DD1,>D1D1
     E7D0 1D1D 
     E7D2 1DD1 
     E7D4 D1D1 
0131 E7D6 D1D1     LCOL130 DATA >D1D1,>D1D0,>D0D0,>D0D0
     E7D8 D1D0 
     E7DA D0D0 
     E7DC D0D0 
0132 E7DE D1D1     LCOL131 DATA >D1D1,>1DD0,>D0D0,>1D1D
     E7E0 1DD0 
     E7E2 D0D0 
     E7E4 1D1D 
0133 E7E6 D1D1     LCOL132 DATA >D1D1,>D1D1,>1010,>1010
     E7E8 D1D1 
     E7EA 1010 
     E7EC 1010 
0134 E7EE 6116     LCOL133 DATA >6116,>1616,>6060,>6060
     E7F0 1616 
     E7F2 6060 
     E7F4 6060 
0135 E7F6 166F     LCOL134 DATA >166F,>6F6F,>6F6F,>6F60
     E7F8 6F6F 
     E7FA 6F6F 
     E7FC 6F60 
0136 E7FE 1661     LCOL135 DATA >1661,>1661,>6116,>1616
     E800 1661 
     E802 6116 
     E804 1616 
0137 E806 1616     LCOL136 DATA >1616,>1616,>1616,>1616
     E808 1616 
     E80A 1616 
     E80C 1616 
0138 E80E 6110     LCOL137 DATA >6110,>1010,>1010,>1010
     E810 1010 
     E812 1010 
     E814 1010 
0139 E816 6010     LCOL138 DATA >6010,>1010,>1010,>1010
     E818 1010 
     E81A 1010 
     E81C 1010 
0140 E81E 1610     LCOL139 DATA >1610,>1010,>1010,>1010
     E820 1010 
     E822 1010 
     E824 1010 
0141 E826 F0F0     LCOL140 DATA >F0F0,>F0F0,>F0F0,>F0F0
     E828 F0F0 
     E82A F0F0 
     E82C F0F0 
0142 E82E F0F0     LCOL141 DATA >F0F0,>F0F0,>F0F0,>F0F0
     E830 F0F0 
     E832 F0F0 
     E834 F0F0 
0143 E836 F0F0     LCOL142 DATA >F0F0,>F0F0,>F0F0,>F010
     E838 F0F0 
     E83A F0F0 
     E83C F010 
0144 E83E F0F0     LCOL143 DATA >F0F0,>F0F0,>F0F0,>F010
     E840 F0F0 
     E842 F0F0 
     E844 F010 
0145               
0146 E846 0507     LPAT0   DATA >0507,>0775,>0505,>0500
     E848 0775 
     E84A 0505 
     E84C 0500 
0147 E84E E00F     LPAT1   DATA >E00F,>0F0F,>0F0F,>0F0F
     E850 0F0F 
     E852 0F0F 
     E854 0F0F 
0148 E856 FFFF     LPAT2   DATA >FFFF,>FF01,>070F,>078F
     E858 FF01 
     E85A 070F 
     E85C 078F 
0149 E85E FFFF     LPAT3   DATA >FFFF,>E0FF,>FFFF,>01FF
     E860 E0FF 
     E862 FFFF 
     E864 01FF 
0150 E866 FEFE     LPAT4   DATA >FEFE,>80E0,>E080,>FFFF
     E868 80E0 
     E86A E080 
     E86C FFFF 
0151 E86E E0E0     LPAT5   DATA >E0E0,>E0E0,>E0E0,>C0C0
     E870 E0E0 
     E872 E0E0 
     E874 C0C0 
0152 E876 FFFF     LPAT6   DATA >FFFF,>FFFF,>FFFF,>07C0
     E878 FFFF 
     E87A FFFF 
     E87C 07C0 
0153 E87E FFFF     LPAT7   DATA >FFFF,>FFFF,>E080,>FFFF
     E880 FFFF 
     E882 E080 
     E884 FFFF 
0154 E886 FFFF     LPAT8   DATA >FFFF,>FFFF,>0701,>FFFF
     E888 FFFF 
     E88A 0701 
     E88C FFFF 
0155 E88E FFFF     LPAT9   DATA >FFFF,>FFFF,>FFFF,>80C0
     E890 FFFF 
     E892 FFFF 
     E894 80C0 
0156 E896 FFFF     LPAT10  DATA >FFFF,>FFFF,>FFC0,>C080
     E898 FFFF 
     E89A FFC0 
     E89C C080 
0157 E89E FFFF     LPAT11  DATA >FFFF,>FFFF,>FFFF,>FFFF
     E8A0 FFFF 
     E8A2 FFFF 
     E8A4 FFFF 
0158 E8A6 FFFF     LPAT12  DATA >FFFF,>FFFF,>FF01,>0103
     E8A8 FFFF 
     E8AA FF01 
     E8AC 0103 
0159 E8AE FF30     LPAT13  DATA >FF30,>C0C0,>C0C0,>C080
     E8B0 C0C0 
     E8B2 C0C0 
     E8B4 C080 
0160 E8B6 FFFF     LPAT14  DATA >FFFF,>8003,>0101,>0101
     E8B8 8003 
     E8BA 0101 
     E8BC 0101 
0161 E8BE FFFF     LPAT15  DATA >FFFF,>FFFF,>8080,>8080
     E8C0 FFFF 
     E8C2 8080 
     E8C4 8080 
0162 E8C6 FFFF     LPAT16  DATA >FFFF,>FFFF,>E0FF,>FFFF
     E8C8 FFFF 
     E8CA E0FF 
     E8CC FFFF 
0163 E8CE FFFF     LPAT17  DATA >FFFF,>FFFF,>FFFF,>FFFF
     E8D0 FFFF 
     E8D2 FFFF 
     E8D4 FFFF 
0164 E8D6 FFFF     LPAT18  DATA >FFFF,>FF07,>07E0,>C080
     E8D8 FF07 
     E8DA 07E0 
     E8DC C080 
0165 E8DE FFFF     LPAT19  DATA >FFFF,>C0E0,>0703,>0303
     E8E0 C0E0 
     E8E2 0703 
     E8E4 0303 
0166 E8E6 FFFF     LPAT20  DATA >FFFF,>FFFF,>FF0F,>80FF
     E8E8 FFFF 
     E8EA FF0F 
     E8EC 80FF 
0167 E8EE FFFF     LPAT21  DATA >FFFF,>FFFF,>FFFF,>FFFF
     E8F0 FFFF 
     E8F2 FFFF 
     E8F4 FFFF 
0168 E8F6 FFFF     LPAT22  DATA >FFFF,>FFFF,>C007,>FFFF
     E8F8 FFFF 
     E8FA C007 
     E8FC FFFF 
0169 E8FE FFFF     LPAT23  DATA >FFFF,>FFFF,>FFFF,>80C0
     E900 FFFF 
     E902 FFFF 
     E904 80C0 
0170 E906 FFFF     LPAT24  DATA >FFFF,>FFFF,>FFFF,>0780
     E908 FFFF 
     E90A FFFF 
     E90C 0780 
0171 E90E FFFF     LPAT25  DATA >FFFF,>FFFF,>1070,>0707
     E910 FFFF 
     E912 1070 
     E914 0707 
0172 E916 FFFF     LPAT26  DATA >FFFF,>FFFF,>38C0,>C080
     E918 FFFF 
     E91A 38C0 
     E91C C080 
0173 E91E FFFF     LPAT27  DATA >FFFF,>FFFF,>FF80,>E007
     E920 FFFF 
     E922 FF80 
     E924 E007 
0174 E926 0707     LPAT28  DATA >0707,>0707,>0703,>0303
     E928 0707 
     E92A 0703 
     E92C 0303 
0175 E92E 03FF     LPAT29  DATA >03FF,>FF01,>01FF,>FFFF
     E930 FF01 
     E932 01FF 
     E934 FFFF 
0176 E936 FFE0     LPAT30  DATA >FFE0,>FFFF,>FFFF,>C00F
     E938 FFFF 
     E93A FFFF 
     E93C C00F 
0177 E93E F880     LPAT31  DATA >F880,>0703,>0101,>0307
     E940 0703 
     E942 0101 
     E944 0307 
0178 E946 0101     LPAT32  DATA >0101,>01FF,>FF01,>0101
     E948 01FF 
     E94A FF01 
     E94C 0101 
0179 E94E C0C0     LPAT33  DATA >C0C0,>C0C0,>C0C0,>E0E0
     E950 C0C0 
     E952 C0C0 
     E954 E0E0 
0180 E956 FF03     LPAT34  DATA >FF03,>0FC0,>8080,>800F
     E958 0FC0 
     E95A 8080 
     E95C 800F 
0181 E95E FFFF     LPAT35  DATA >FFFF,>FFFF,>FFFF,>FF01
     E960 FFFF 
     E962 FFFF 
     E964 FF01 
0182 E966 0703     LPAT36  DATA >0703,>0303,>07E0,>80FF
     E968 0303 
     E96A 07E0 
     E96C 80FF 
0183 E96E 0707     LPAT37  DATA >0707,>070F,>0F0F,>0F0F
     E970 070F 
     E972 0F0F 
     E974 0F0F 
0184 E976 0F0F     LPAT38  DATA >0F0F,>E0E0,>C0C0,>C080
     E978 E0E0 
     E97A C0C0 
     E97C C080 
0185 E97E FFFF     LPAT39  DATA >FFFF,>FFFF,>FFFF,>FFFF
     E980 FFFF 
     E982 FFFF 
     E984 FFFF 
0186 E986 C0C0     LPAT40  DATA >C0C0,>C081,>8183,>7807
     E988 C081 
     E98A 8183 
     E98C 7807 
0187 E98E C0C0     LPAT41  DATA >C0C0,>C0C0,>C0C0,>C023
     E990 C0C0 
     E992 C0C0 
     E994 C023 
0188 E996 0101     LPAT42  DATA >0101,>0101,>FFFF,>FFFF
     E998 0101 
     E99A FFFF 
     E99C FFFF 
0189 E99E 1CFF     LPAT43  DATA >1CFF,>FFFF,>FFFF,>FFFF
     E9A0 FFFF 
     E9A2 FFFF 
     E9A4 FFFF 
0190 E9A6 FFFF     LPAT44  DATA >FFFF,>FFFF,>FF01,>0101
     E9A8 FFFF 
     E9AA FF01 
     E9AC 0101 
0191 E9AE F020     LPAT45  DATA >F020,>700F,>0F0F,>0F0F
     E9B0 700F 
     E9B2 0F0F 
     E9B4 0F0F 
0192 E9B6 0701     LPAT46  DATA >0701,>0100,>0101,>0101
     E9B8 0100 
     E9BA 0101 
     E9BC 0101 
0193 E9BE C0C0     LPAT47  DATA >C0C0,>8080,>8080,>C0C0
     E9C0 8080 
     E9C2 8080 
     E9C4 C0C0 
0194 E9C6 FFFF     LPAT48  DATA >FFFF,>FFFF,>FFFF,>FFFF
     E9C8 FFFF 
     E9CA FFFF 
     E9CC FFFF 
0195 E9CE C0E0     LPAT49  DATA >C0E0,>0F07,>01FF,>FF80
     E9D0 0F07 
     E9D2 01FF 
     E9D4 FF80 
0196 E9D6 FFFF     LPAT50  DATA >FFFF,>FFFF,>FFFF,>FF01
     E9D8 FFFF 
     E9DA FFFF 
     E9DC FF01 
0197 E9DE 0303     LPAT51  DATA >0303,>070F,>C0FF,>C0C0
     E9E0 070F 
     E9E2 C0FF 
     E9E4 C0C0 
0198 E9E6 C0FF     LPAT52  DATA >C0FF,>FFFF,>FFFF,>FFFF
     E9E8 FFFF 
     E9EA FFFF 
     E9EC FFFF 
0199 E9EE FF80     LPAT53  DATA >FF80,>E007,>0301,>FFFF
     E9F0 E007 
     E9F2 0301 
     E9F4 FFFF 
0200 E9F6 01FF     LPAT54  DATA >01FF,>FFFF,>FFFF,>80C0
     E9F8 FFFF 
     E9FA FFFF 
     E9FC 80C0 
0201 E9FE 0778     LPAT55  DATA >0778,>3830,>FFFF,>FFFF
     EA00 3830 
     EA02 FFFF 
     EA04 FFFF 
0202 EA06 0303     LPAT56  DATA >0303,>0303,>0303,>0303
     EA08 0303 
     EA0A 0303 
     EA0C 0303 
0203 EA0E 3CFF     LPAT57  DATA >3CFF,>FFFF,>FFFF,>FFFF
     EA10 FFFF 
     EA12 FFFF 
     EA14 FFFF 
0204 EA16 0FFF     LPAT58  DATA >0FFF,>FFFF,>FFFF,>FFFF
     EA18 FFFF 
     EA1A FFFF 
     EA1C FFFF 
0205 EA1E FF80     LPAT59  DATA >FF80,>FFFF,>FFFF,>FFFF
     EA20 FFFF 
     EA22 FFFF 
     EA24 FFFF 
0206 EA26 FF03     LPAT60  DATA >FF03,>FFFF,>FFFF,>FFFF
     EA28 FFFF 
     EA2A FFFF 
     EA2C FFFF 
0207 EA2E 80FF     LPAT61  DATA >80FF,>FFFF,>FFFF,>FFFF
     EA30 FFFF 
     EA32 FFFF 
     EA34 FFFF 
0208 EA36 800F     LPAT62  DATA >800F,>01FF,>FFFF,>FFFF
     EA38 01FF 
     EA3A FFFF 
     EA3C FFFF 
0209 EA3E FFFF     LPAT63  DATA >FFFF,>FFFF,>FFFF,>FFFF
     EA40 FFFF 
     EA42 FFFF 
     EA44 FFFF 
0210 EA46 070F     LPAT64  DATA >070F,>80FF,>FFFF,>FFFF
     EA48 80FF 
     EA4A FFFF 
     EA4C FFFF 
0211 EA4E E00F     LPAT65  DATA >E00F,>03FF,>FFFF,>FFFF
     EA50 03FF 
     EA52 FFFF 
     EA54 FFFF 
0212 EA56 FFFF     LPAT66  DATA >FFFF,>03FF,>FFFF,>FFFF
     EA58 03FF 
     EA5A FFFF 
     EA5C FFFF 
0213 EA5E 0C03     LPAT67  DATA >0C03,>0707,>06FF,>FFFF
     EA60 0707 
     EA62 06FF 
     EA64 FFFF 
0214 EA66 030F     LPAT68  DATA >030F,>C0FF,>FFFF,>FFFF
     EA68 C0FF 
     EA6A FFFF 
     EA6C FFFF 
0215 EA6E 0E0C     LPAT69  DATA >0E0C,>FFFF,>FFFF,>FFFF
     EA70 FFFF 
     EA72 FFFF 
     EA74 FFFF 
0216 EA76 03FF     LPAT70  DATA >03FF,>FFFF,>FFFF,>FFFF
     EA78 FFFF 
     EA7A FFFF 
     EA7C FFFF 
0217 EA7E 0181     LPAT71  DATA >0181,>FFFF,>FFFF,>FFFF
     EA80 FFFF 
     EA82 FFFF 
     EA84 FFFF 
0218 EA86 E0C0     LPAT72  DATA >E0C0,>C0E0,>FFFF,>FFFF
     EA88 C0E0 
     EA8A FFFF 
     EA8C FFFF 
0219 EA8E 0301     LPAT73  DATA >0301,>FFFF,>FF0F,>FFFF
     EA90 FFFF 
     EA92 FF0F 
     EA94 FFFF 
0220 EA96 01FF     LPAT74  DATA >01FF,>E0C0,>C080,>FFFF
     EA98 E0C0 
     EA9A C080 
     EA9C FFFF 
0221 EA9E FF80     LPAT75  DATA >FF80,>0FFF,>FFFF,>FFFF
     EAA0 0FFF 
     EAA2 FFFF 
     EAA4 FFFF 
0222 EAA6 FFFF     LPAT76  DATA >FFFF,>FFFF,>FFFF,>FFFF
     EAA8 FFFF 
     EAAA FFFF 
     EAAC FFFF 
0223 EAAE 0FC0     LPAT77  DATA >0FC0,>FFFF,>FFFF,>FFFF
     EAB0 FFFF 
     EAB2 FFFF 
     EAB4 FFFF 
0224 EAB6 FFFF     LPAT78  DATA >FFFF,>8080,>C0E0,>0701
     EAB8 8080 
     EABA C0E0 
     EABC 0701 
0225 EABE FFFF     LPAT79  DATA >FFFF,>FFFF,>FFFF,>FFFF
     EAC0 FFFF 
     EAC2 FFFF 
     EAC4 FFFF 
0226 EAC6 0C18     LPAT80  DATA >0C18,>FFFF,>FFFF,>FFFF
     EAC8 FFFF 
     EACA FFFF 
     EACC FFFF 
0227 EACE FFFF     LPAT81  DATA >FFFF,>FEFC,>F1C3,>0F01
     EAD0 FEFC 
     EAD2 F1C3 
     EAD4 0F01 
0228 EAD6 0F0F     LPAT82  DATA >0F0F,>1FE0,>C080,>FFFF
     EAD8 1FE0 
     EADA C080 
     EADC FFFF 
0229 EADE 0101     LPAT83  DATA >0101,>0101,>0101,>0101
     EAE0 0101 
     EAE2 0101 
     EAE4 0101 
0230 EAE6 FFC0     LPAT84  DATA >FFC0,>0FFF,>FFFF,>FFFF
     EAE8 0FFF 
     EAEA FFFF 
     EAEC FFFF 
0231 EAEE FFFF     LPAT85  DATA >FFFF,>FFFF,>FFFF,>FFFF
     EAF0 FFFF 
     EAF2 FFFF 
     EAF4 FFFF 
0232 EAF6 FFFF     LPAT86  DATA >FFFF,>0FFF,>FEFF,>FFFF
     EAF8 0FFF 
     EAFA FEFF 
     EAFC FFFF 
0233 EAFE FFFF     LPAT87  DATA >FFFF,>0701,>0FC3,>F1FC
     EB00 0701 
     EB02 0FC3 
     EB04 F1FC 
0234 EB06 FFFF     LPAT88  DATA >FFFF,>FFFF,>80C0,>E0E0
     EB08 FFFF 
     EB0A 80C0 
     EB0C E0E0 
0235 EB0E 0F0F     LPAT89  DATA >0F0F,>0F0F,>0F0F,>0F07
     EB10 0F0F 
     EB12 0F0F 
     EB14 0F07 
0236 EB16 FCFF     LPAT90  DATA >FCFF,>FFFF,>FFFF,>FFFF
     EB18 FFFF 
     EB1A FFFF 
     EB1C FFFF 
0237 EB1E C080     LPAT91  DATA >C080,>80E0,>0F07,>0301
     EB20 80E0 
     EB22 0F07 
     EB24 0301 
0238 EB26 FF01     LPAT92  DATA >FF01,>0307,>070F,>0FE0
     EB28 0307 
     EB2A 070F 
     EB2C 0FE0 
0239 EB2E 80FF     LPAT93  DATA >80FF,>FFFF,>FFFF,>FFC0
     EB30 FFFF 
     EB32 FFFF 
     EB34 FFC0 
0240 EB36 FFFF     LPAT94  DATA >FFFF,>FFFF,>FFFF,>FFC0
     EB38 FFFF 
     EB3A FFFF 
     EB3C FFC0 
0241 EB3E FFFF     LPAT95  DATA >FFFF,>FFFF,>FFFF,>FFC0
     EB40 FFFF 
     EB42 FFFF 
     EB44 FFC0 
0242 EB46 E00F     LPAT96  DATA >E00F,>0F0F,>0707,>0707
     EB48 0F0F 
     EB4A 0707 
     EB4C 0707 
0243 EB4E 80FF     LPAT97  DATA >80FF,>FFFF,>0103,>0307
     EB50 FFFF 
     EB52 0103 
     EB54 0307 
0244 EB56 0CFF     LPAT98  DATA >0CFF,>FFFF,>FFFF,>FFFF
     EB58 FFFF 
     EB5A FFFF 
     EB5C FFFF 
0245 EB5E 0303     LPAT99  DATA >0303,>070F,>E0E0,>E0C0
     EB60 070F 
     EB62 E0E0 
     EB64 E0C0 
0246 EB66 8080     LPAT100 DATA >8080,>8080,>8080,>80FF
     EB68 8080 
     EB6A 8080 
     EB6C 80FF 
0247 EB6E 0F0F     LPAT101 DATA >0F0F,>E0E0,>E0E0,>E0C0
     EB70 E0E0 
     EB72 E0E0 
     EB74 E0C0 
0248 EB76 80C0     LPAT102 DATA >80C0,>0703,>0301,>0101
     EB78 0703 
     EB7A 0301 
     EB7C 0101 
0249 EB7E FFFF     LPAT103 DATA >FFFF,>FFFF,>FFFF,>FFFF
     EB80 FFFF 
     EB82 FFFF 
     EB84 FFFF 
0250 EB86 0101     LPAT104 DATA >0101,>0202,>FF04,>FFC7
     EB88 0202 
     EB8A FF04 
     EB8C FFC7 
0251 EB8E 0101     LPAT105 DATA >0101,>0101,>0101,>0101
     EB90 0101 
     EB92 0101 
     EB94 0101 
0252 EB96 070F     LPAT106 DATA >070F,>0F0F,>E0E0,>E0C0
     EB98 0F0F 
     EB9A E0E0 
     EB9C E0C0 
0253 EB9E FFFF     LPAT107 DATA >FFFF,>FFFF,>FFFF,>FFFF
     EBA0 FFFF 
     EBA2 FFFF 
     EBA4 FFFF 
0254 EBA6 031C     LPAT108 DATA >031C,>3860,>6040,>C0C0
     EBA8 3860 
     EBAA 6040 
     EBAC C0C0 
0255 EBAE C0FF     LPAT109 DATA >C0FF,>FFFF,>FFFF,>FFFF
     EBB0 FFFF 
     EBB2 FFFF 
     EBB4 FFFF 
0256 EBB6 0F07     LPAT110 DATA >0F07,>0703,>0303,>0303
     EBB8 0703 
     EBBA 0303 
     EBBC 0303 
0257 EBBE 03FF     LPAT111 DATA >03FF,>FFFF,>FFFF,>FF06
     EBC0 FFFF 
     EBC2 FFFF 
     EBC4 FF06 
0258 EBC6 0307     LPAT112 DATA >0307,>E0E0,>0F07,>0703
     EBC8 E0E0 
     EBCA 0F07 
     EBCC 0703 
0259 EBCE 80FF     LPAT113 DATA >80FF,>FF01,>0101,>0307
     EBD0 FF01 
     EBD2 0101 
     EBD4 0307 
0260 EBD6 01FF     LPAT114 DATA >01FF,>E1FF,>FFFF,>0103
     EBD8 E1FF 
     EBDA FFFF 
     EBDC 0103 
0261 EBDE FF80     LPAT115 DATA >FF80,>0F0F,>0FE0,>FFFF
     EBE0 0F0F 
     EBE2 0FE0 
     EBE4 FFFF 
0262 EBE6 03C4     LPAT116 DATA >03C4,>C0C0,>C0C0,>C0C0
     EBE8 C0C0 
     EBEA C0C0 
     EBEC C0C0 
0263 EBEE 0101     LPAT117 DATA >0101,>0303,>070F,>E0C0
     EBF0 0303 
     EBF2 070F 
     EBF4 E0C0 
0264 EBF6 E00F     LPAT118 DATA >E00F,>0F0F,>0703,>03FF
     EBF8 0F0F 
     EBFA 0703 
     EBFC 03FF 
0265 EBFE FFFF     LPAT119 DATA >FFFF,>FFFF,>FFFF,>FFFF
     EC00 FFFF 
     EC02 FFFF 
     EC04 FFFF 
0266 EC06 FFFE     LPAT120 DATA >FFFE,>FCFC,>F1C3,>0F01
     EC08 FCFC 
     EC0A F1C3 
     EC0C 0F01 
0267 EC0E E0E0     LPAT121 DATA >E0E0,>E0C0,>807F,>FFFF
     EC10 E0C0 
     EC12 807F 
     EC14 FFFF 
0268 EC16 8080     LPAT122 DATA >8080,>8080,>8080,>80C0
     EC18 8080 
     EC1A 8080 
     EC1C 80C0 
0269 EC1E 0770     LPAT123 DATA >0770,>60FF,>FFFF,>FF04
     EC20 60FF 
     EC22 FFFF 
     EC24 FF04 
0270 EC26 FFFF     LPAT124 DATA >FFFF,>FFFF,>FFFF,>0FC0
     EC28 FFFF 
     EC2A FFFF 
     EC2C 0FC0 
0271 EC2E FF07     LPAT125 DATA >FF07,>0F0F,>0F0F,>0F0F
     EC30 0F0F 
     EC32 0F0F 
     EC34 0F0F 
0272 EC36 8080     LPAT126 DATA >8080,>FFFF,>FFFF,>FFFF
     EC38 FFFF 
     EC3A FFFF 
     EC3C FFFF 
0273 EC3E 0303     LPAT127 DATA >0303,>0303,>0303,>0303
     EC40 0303 
     EC42 0303 
     EC44 0303 
0274 EC46 0F0F     LPAT128 DATA >0F0F,>0F0F,>0F0F,>E0E0
     EC48 0F0F 
     EC4A 0F0F 
     EC4C E0E0 
0275 EC4E C0C0     LPAT129 DATA >C0C0,>E0E0,>E00F,>0703
     EC50 E0E0 
     EC52 E00F 
     EC54 0703 
0276 EC56 80C0     LPAT130 DATA >80C0,>E0FF,>FFFF,>FFFF
     EC58 E0FF 
     EC5A FFFF 
     EC5C FFFF 
0277 EC5E 030F     LPAT131 DATA >030F,>80FF,>FFFF,>0103
     EC60 80FF 
     EC62 FFFF 
     EC64 0103 
0278 EC66 C0C0     LPAT132 DATA >C0C0,>8080,>FFFF,>FFFF
     EC68 8080 
     EC6A FFFF 
     EC6C FFFF 
0279 EC6E 01E0     LPAT133 DATA >01E0,>C080,>FFFF,>FFFF
     EC70 C080 
     EC72 FFFF 
     EC74 FFFF 
0280 EC76 07FF     LPAT134 DATA >07FF,>87F1,>FCFE,>FFFF
     EC78 87F1 
     EC7A FCFE 
     EC7C FFFF 
0281 EC7E C00F     LPAT135 DATA >C00F,>78C1,>E00F,>0F0E
     EC80 78C1 
     EC82 E00F 
     EC84 0F0E 
0282 EC86 0707     LPAT136 DATA >0707,>0707,>0707,>070F
     EC88 0707 
     EC8A 0707 
     EC8C 070F 
0283 EC8E 07FF     LPAT137 DATA >07FF,>FFFF,>FFFF,>FFFF
     EC90 FFFF 
     EC92 FFFF 
     EC94 FFFF 
0284 EC96 FFFF     LPAT138 DATA >FFFF,>FFFF,>FFFF,>FFFF
     EC98 FFFF 
     EC9A FFFF 
     EC9C FFFF 
0285 EC9E 0FFF     LPAT139 DATA >0FFF,>FFFF,>FFFF,>FFFF
     ECA0 FFFF 
     ECA2 FFFF 
     ECA4 FFFF 
0286 ECA6 CAAA     LPAT140 DATA >CAAA,>AEC4,>A4A4,>C400
     ECA8 AEC4 
     ECAA A4A4 
     ECAC C400 
0287 ECAE 6255     LPAT141 DATA >6255,>5567,>6555,>5500
     ECB0 5567 
     ECB2 6555 
     ECB4 5500 
0288 ECB6 3547     LPAT142 DATA >3547,>4725,>1515,>6500
     ECB8 4725 
     ECBA 1515 
     ECBC 6500 
0289 ECBE 5354     LPAT143 DATA >5354,>5452,>5151,>7600
     ECC0 5452 
     ECC2 5151 
     ECC4 7600 
0290               
0291 ECC6 FFFF     LMAP   DATA >FFFF,>FFFF,>FFFF,>FFFF
     ECC8 FFFF 
     ECCA FFFF 
     ECCC FFFF 
0292 ECCE FFFF            DATA >FFFF,>FFFF,>FFFF,>FFFF
     ECD0 FFFF 
     ECD2 FFFF 
     ECD4 FFFF 
0293 ECD6 FFFF            DATA >FFFF,>FFFF,>FFFF,>FFFF
     ECD8 FFFF 
     ECDA FFFF 
     ECDC FFFF 
0294 ECDE FFFF            DATA >FFFF,>FFFF,>FFFF,>FFFF
     ECE0 FFFF 
     ECE2 FFFF 
     ECE4 FFFF 
0295 ECE6 5354            DATA >5354,>5556,>5758,>FFFF
     ECE8 5556 
     ECEA 5758 
     ECEC FFFF 
0296 ECEE FFFF            DATA >FFFF,>FFFF,>FFFF,>FFFF
     ECF0 FFFF 
     ECF2 FFFF 
     ECF4 FFFF 
0297 ECF6 FFFF            DATA >FFFF,>FFFF,>FFFF,>FFFF
     ECF8 FFFF 
     ECFA FFFF 
     ECFC FFFF 
0298 ECFE FFFF            DATA >FFFF,>FFFF,>FFFF,>FFFF
     ED00 FFFF 
     ED02 FFFF 
     ED04 FFFF 
0299 ED06 FF01            DATA >FF01,>0203,>0405,>FF06
     ED08 0203 
     ED0A 0405 
     ED0C FF06 
0300 ED0E 0708            DATA >0708,>090A,>0B0C,>0D0E
     ED10 090A 
     ED12 0B0C 
     ED14 0D0E 
0301 ED16 0F10            DATA >0F10,>1112,>13FF,>1415
     ED18 1112 
     ED1A 13FF 
     ED1C 1415 
0302 ED1E 1617            DATA >1617,>FF18,>191A,>1BFF
     ED20 FF18 
     ED22 191A 
     ED24 1BFF 
0303 ED26 FF59            DATA >FF59,>5A5A,>5A5B,>5C5D
     ED28 5A5A 
     ED2A 5A5B 
     ED2C 5C5D 
0304 ED2E 5E5F            DATA >5E5F,>6061,>6263,>6465
     ED30 6061 
     ED32 6263 
     ED34 6465 
0305 ED36 6667            DATA >6667,>6867,>696A,>6B6C
     ED38 6867 
     ED3A 696A 
     ED3C 6B6C 
0306 ED3E 6D6E            DATA >6D6E,>6F5A,>7071,>7273
     ED40 6F5A 
     ED42 7071 
     ED44 7273 
0307 ED46 FF1C            DATA >FF1C,>1D1E,>1F20,>2122
     ED48 1D1E 
     ED4A 1F20 
     ED4C 2122 
0308 ED4E 2324            DATA >2324,>2526,>2728,>2729
     ED50 2526 
     ED52 2728 
     ED54 2729 
0309 ED56 2A2B            DATA >2A2B,>2C2D,>2E2F,>3031
     ED58 2C2D 
     ED5A 2E2F 
     ED5C 3031 
0310 ED5E 3233            DATA >3233,>3435,>3637,>38FF
     ED60 3435 
     ED62 3637 
     ED64 38FF 
0311 ED66 FF74            DATA >FF74,>4F4F,>4F75,>7677
     ED68 4F4F 
     ED6A 4F75 
     ED6C 7677 
0312 ED6E 7778            DATA >7778,>797A,>277B,>277C
     ED70 797A 
     ED72 277B 
     ED74 277C 
0313 ED76 7D7E            DATA >7D7E,>7F80,>7F81,>3082
     ED78 7F80 
     ED7A 7F81 
     ED7C 3082 
0314 ED7E 8384            DATA >8384,>8586,>874F,>88FF
     ED80 8586 
     ED82 874F 
     ED84 88FF 
0315 ED86 FF39            DATA >FF39,>3A3B,>3C3D,>FF3E
     ED88 3A3B 
     ED8A 3C3D 
     ED8C FF3E 
0316 ED8E 3F40            DATA >3F40,>FF41,>4243,>44FF
     ED90 FF41 
     ED92 4243 
     ED94 44FF 
0317 ED96 4546            DATA >4546,>4748,>494A,>4B4C
     ED98 4748 
     ED9A 494A 
     ED9C 4B4C 
0318 ED9E 4DFF            DATA >4DFF,>4E4F,>5051,>52FF
     EDA0 4E4F 
     EDA2 5051 
     EDA4 52FF 
0319 EDA6 FFFF            DATA >FFFF,>8C8D,>8E8F,>00FF
     EDA8 8C8D 
     EDAA 8E8F 
     EDAC 00FF 
0320 EDAE FFFF            DATA >FFFF,>FFFF,>FFFF,>FFFF
     EDB0 FFFF 
     EDB2 FFFF 
     EDB4 FFFF 
0321 EDB6 FFFF            DATA >FFFF,>FFFF,>FFFF,>FFFF
     EDB8 FFFF 
     EDBA FFFF 
     EDBC FFFF 
0322 EDBE FFFF            DATA >FFFF,>FF89,>8A8B,>FFFF
     EDC0 FF89 
     EDC2 8A8B 
     EDC4 FFFF 
**** **** ****     > bouncy.a99
3481               
3482               ***************************************************************************
3483               *
3484               * Buffers
3485               *
3486      0260     FRMSIZ EQU  STLNU1*8
3487               
3488      D806     STILES EQU  BUFFS               * Scroll tile lookup table
3489      D8E6     ROWBUF EQU  STILES+224          * Buffer for storing one map row
3490      D8FE     ENMLST EQU  ROWBUF+MAPW         * Enemy list
3491      D990     SWLIST EQU  ENM_SZ*8+2+ENMLST   * Switch list
3492      D9A2     PTFRM0 EQU  SW_SZ*4+2+SWLIST    * Pattern frame 0
3493      EA42     PTFRM7 EQU  7*FRMSIZ+PTFRM0     * Pattern frame 7
3494      ECA2     CLFRM0 EQU  FRMSIZ+PTFRM7       * Color frame 0
3495      FD42     CLFRM7 EQU  7*FRMSIZ+CLFRM0     * Color frame 7
3496      FFA2     RAMMAX EQU  FRMSIZ+CLFRM7       * Max used RAM address
3497               
3498               ***************************************************************************
3499               *
3500               * Lower memory
3501               *
3502      2000     MTMAP  EQU  >2000               * Meta tile map (unpacked)
3503      2300     MAP    EQU  MAPW*MAPH/4+MTMAP   * Expanded map
3504      2F00     MAPE   EQU  MAPW*MAPH+MAP       * End of map
3505               
3506                      AORG >3000
3507                      COPY "patterns.a99"
**** **** ****     > patterns.a99
0001               ****************************************
0002               * Colorset Definitions
0003               ****************************************
0004               COLS
0005 3000 F07F     COL0   DATA >F07F,>7F7F,>7F7F,>7F7F
     3002 7F7F 
     3004 7F7F 
     3006 7F7F 
0006 3008 F074     COL1   DATA >F074,>7474,>7474,>7474
     300A 7474 
     300C 7474 
     300E 7474 
0007 3010 5454     COL2   DATA >5454,>5454,>5454,>5454
     3012 5454 
     3014 5454 
     3016 5454 
0008 3018 5454     COL3   DATA >5454,>5454,>5454,>5454
     301A 5454 
     301C 5454 
     301E 5454 
0009 3020 FFF5     COL4   DATA >FFF5,>F4F4,>F2F3,>FCFC
     3022 F4F4 
     3024 F2F3 
     3026 FCFC 
0010 3028 FFF5     COL5   DATA >FFF5,>F4F4,>F2F3,>FCFC
     302A F4F4 
     302C F2F3 
     302E FCFC 
0011 3030 BBFB     COL6   DATA >BBFB,>FBFB,>FBFB,>FBFB
     3032 FBFB 
     3034 FBFB 
     3036 FBFB 
0012 3038 ABFA     COL7   DATA >ABFA,>FAFA,>FAFA,>FAFA
     303A FAFA 
     303C FAFA 
     303E FAFA 
0013 3040 7F7F     COL8   DATA >7F7F,>7F7F,>7F7F,>7FF4
     3042 7F7F 
     3044 7F7F 
     3046 7FF4 
0014 3048 7474     COL9   DATA >7474,>7474,>7474,>74C4
     304A 7474 
     304C 7474 
     304E 74C4 
0015 3050 5454     COL10  DATA >5454,>5454,>5454,>5454
     3052 5454 
     3054 5454 
     3056 5454 
0016 3058 5454     COL11  DATA >5454,>5454,>5454,>5454
     305A 5454 
     305C 5454 
     305E 5454 
0017 3060 FAFB     COL12  DATA >FAFB,>FAFA,>F8F9,>F6EE
     3062 FAFA 
     3064 F8F9 
     3066 F6EE 
0018 3068 FAFB     COL13  DATA >FAFB,>FAFA,>F8F9,>F6FE
     306A FAFA 
     306C F8F9 
     306E F6FE 
0019 3070 FBFB     COL14  DATA >FBFB,>FBFB,>FBFB,>FBAB
     3072 FBFB 
     3074 FBFB 
     3076 FBAB 
0020 3078 FAFA     COL15  DATA >FAFA,>FAFA,>FAFA,>FAAB
     307A FAFA 
     307C FAFA 
     307E FAAB 
0021 3080 3023     COL16  DATA >3023,>2323,>2323,>2323
     3082 2323 
     3084 2323 
     3086 2323 
0022 3088 302C     COL17  DATA >302C,>2C2C,>2C2C,>2C2C
     308A 2C2C 
     308C 2C2C 
     308E 2C2C 
0023 3090 1F1F     COL18  DATA >1F1F,>1F1F,>1F1F,>1F1F
     3092 1F1F 
     3094 1F1F 
     3096 1F1F 
0024 3098 1F1F     COL19  DATA >1F1F,>1F1F,>1F1F,>1F1F
     309A 1F1F 
     309C 1F1F 
     309E 1F1F 
0025 30A0 9696     COL20  DATA >9696,>9696,>9696,>9696
     30A2 9696 
     30A4 9696 
     30A6 9696 
0026 30A8 9696     COL21  DATA >9696,>9696,>9696,>9696
     30AA 9696 
     30AC 9696 
     30AE 9696 
0027 30B0 F1F1     COL22  DATA >F1F1,>F1F1,>F1E1,>F1F1
     30B2 F1F1 
     30B4 F1E1 
     30B6 F1F1 
0028 30B8 F1F1     COL23  DATA >F1F1,>E1F1,>F1F1,>F1F1
     30BA E1F1 
     30BC F1F1 
     30BE F1F1 
0029 30C0 2323     COL24  DATA >2323,>2323,>2323,>233C
     30C2 2323 
     30C4 2323 
     30C6 233C 
0030 30C8 2C2C     COL25  DATA >2C2C,>2C2C,>2C2C,>2CCC
     30CA 2C2C 
     30CC 2C2C 
     30CE 2CCC 
0031 30D0 1F1F     COL26  DATA >1F1F,>1F1F,>1F1F,>1F1F
     30D2 1F1F 
     30D4 1F1F 
     30D6 1F1F 
0032 30D8 1F1F     COL27  DATA >1F1F,>1F1F,>1F1F,>1F1F
     30DA 1F1F 
     30DC 1F1F 
     30DE 1F1F 
0033 30E0 9696     COL28  DATA >9696,>9696,>9696,>9696
     30E2 9696 
     30E4 9696 
     30E6 9696 
0034 30E8 9696     COL29  DATA >9696,>9696,>9696,>9696
     30EA 9696 
     30EC 9696 
     30EE 9696 
0035 30F0 F1F1     COL30  DATA >F1F1,>F1F1,>F1E1,>F1F1
     30F2 F1F1 
     30F4 F1E1 
     30F6 F1F1 
0036 30F8 F1F1     COL31  DATA >F1F1,>E1F1,>F1F1,>E1F1
     30FA E1F1 
     30FC F1F1 
     30FE E1F1 
0037 3100 F07F     COL32  DATA >F07F,>7F7F,>7F7F,>7F7F
     3102 7F7F 
     3104 7F7F 
     3106 7F7F 
0038 3108 F074     COL33  DATA >F074,>7474,>7474,>7474
     310A 7474 
     310C 7474 
     310E 7474 
0039 3110 5454     COL34  DATA >5454,>5454,>5454,>5454
     3112 5454 
     3114 5454 
     3116 5454 
0040 3118 5454     COL35  DATA >5454,>5454,>5454,>5454
     311A 5454 
     311C 5454 
     311E 5454 
0041 3120 FFF4     COL36  DATA >FFF4,>F2F3,>FCFC,>FAFB
     3122 F2F3 
     3124 FCFC 
     3126 FAFB 
0042 3128 FFF4     COL37  DATA >FFF4,>F2F3,>FCFC,>FAFB
     312A F2F3 
     312C FCFC 
     312E FAFB 
0043 3130 BBFB     COL38  DATA >BBFB,>FBFB,>FBFB,>FBFB
     3132 FBFB 
     3134 FBFB 
     3136 FBFB 
0044 3138 ABFA     COL39  DATA >ABFA,>FAFA,>FAFA,>FAFA
     313A FAFA 
     313C FAFA 
     313E FAFA 
0045 3140 7F7F     COL40  DATA >7F7F,>7F7F,>7F7F,>7FF4
     3142 7F7F 
     3144 7F7F 
     3146 7FF4 
0046 3148 7474     COL41  DATA >7474,>7474,>7474,>74C4
     314A 7474 
     314C 7474 
     314E 74C4 
0047 3150 5454     COL42  DATA >5454,>5454,>5454,>5454
     3152 5454 
     3154 5454 
     3156 5454 
0048 3158 5454     COL43  DATA >5454,>5454,>5454,>5454
     315A 5454 
     315C 5454 
     315E 5454 
0049 3160 FAFA     COL44  DATA >FAFA,>F8F9,>F6F6,>F4EE
     3162 F8F9 
     3164 F6F6 
     3166 F4EE 
0050 3168 FAFA     COL45  DATA >FAFA,>F8F9,>F6F6,>F4FE
     316A F8F9 
     316C F6F6 
     316E F4FE 
0051 3170 FBFB     COL46  DATA >FBFB,>FBFB,>FBFB,>FBAB
     3172 FBFB 
     3174 FBFB 
     3176 FBAB 
0052 3178 FAFA     COL47  DATA >FAFA,>FAFA,>FAFA,>FAAB
     317A FAFA 
     317C FAFA 
     317E FAAB 
0053 3180 3023     COL48  DATA >3023,>2323,>2323,>2323
     3182 2323 
     3184 2323 
     3186 2323 
0054 3188 302C     COL49  DATA >302C,>2C2C,>2C2C,>2C2C
     318A 2C2C 
     318C 2C2C 
     318E 2C2C 
0055 3190 1F1F     COL50  DATA >1F1F,>1F1F,>1F1F,>1F1F
     3192 1F1F 
     3194 1F1F 
     3196 1F1F 
0056 3198 1F1F     COL51  DATA >1F1F,>1F1F,>1F1F,>1F1F
     319A 1F1F 
     319C 1F1F 
     319E 1F1F 
0057 31A0 9696     COL52  DATA >9696,>9696,>9696,>9696
     31A2 9696 
     31A4 9696 
     31A6 9696 
0058 31A8 9696     COL53  DATA >9696,>9696,>9696,>9696
     31AA 9696 
     31AC 9696 
     31AE 9696 
0059 31B0 F1F1     COL54  DATA >F1F1,>F1F1,>E1F1,>F1F1
     31B2 F1F1 
     31B4 E1F1 
     31B6 F1F1 
0060 31B8 F1E1     COL55  DATA >F1E1,>F1F1,>F1F1,>F1F1
     31BA F1F1 
     31BC F1F1 
     31BE F1F1 
0061 31C0 2323     COL56  DATA >2323,>2323,>2323,>233C
     31C2 2323 
     31C4 2323 
     31C6 233C 
0062 31C8 2C2C     COL57  DATA >2C2C,>2C2C,>2C2C,>2CCC
     31CA 2C2C 
     31CC 2C2C 
     31CE 2CCC 
0063 31D0 1F1F     COL58  DATA >1F1F,>1F1F,>1F1F,>1F1F
     31D2 1F1F 
     31D4 1F1F 
     31D6 1F1F 
0064 31D8 1F1F     COL59  DATA >1F1F,>1F1F,>1F1F,>1F1F
     31DA 1F1F 
     31DC 1F1F 
     31DE 1F1F 
0065 31E0 9696     COL60  DATA >9696,>9696,>9696,>9696
     31E2 9696 
     31E4 9696 
     31E6 9696 
0066 31E8 9696     COL61  DATA >9696,>9696,>9696,>9696
     31EA 9696 
     31EC 9696 
     31EE 9696 
0067 31F0 F1F1     COL62  DATA >F1F1,>F1F1,>E1F1,>F1F1
     31F2 F1F1 
     31F4 E1F1 
     31F6 F1F1 
0068 31F8 F1E1     COL63  DATA >F1E1,>F1F1,>F1F1,>F1F1
     31FA F1F1 
     31FC F1F1 
     31FE F1F1 
0069 3200 F07F     COL64  DATA >F07F,>7F7F,>7F7F,>7F7F
     3202 7F7F 
     3204 7F7F 
     3206 7F7F 
0070 3208 F074     COL65  DATA >F074,>7474,>7474,>7474
     320A 7474 
     320C 7474 
     320E 7474 
0071 3210 5454     COL66  DATA >5454,>5454,>5454,>5454
     3212 5454 
     3214 5454 
     3216 5454 
0072 3218 5454     COL67  DATA >5454,>5454,>5454,>5454
     321A 5454 
     321C 5454 
     321E 5454 
0073 3220 FFF3     COL68  DATA >FFF3,>FCFC,>FAFB,>FAFA
     3222 FCFC 
     3224 FAFB 
     3226 FAFA 
0074 3228 FFF3     COL69  DATA >FFF3,>FCFC,>FAFB,>FAFA
     322A FCFC 
     322C FAFB 
     322E FAFA 
0075 3230 BBFB     COL70  DATA >BBFB,>FBFB,>FBFB,>FBFB
     3232 FBFB 
     3234 FBFB 
     3236 FBFB 
0076 3238 ABFA     COL71  DATA >ABFA,>FAFA,>FAFA,>FAFA
     323A FAFA 
     323C FAFA 
     323E FAFA 
0077 3240 7F7F     COL72  DATA >7F7F,>7F7F,>7F7F,>7FF4
     3242 7F7F 
     3244 7F7F 
     3246 7FF4 
0078 3248 7474     COL73  DATA >7474,>7474,>7474,>74C4
     324A 7474 
     324C 7474 
     324E 74C4 
0079 3250 5454     COL74  DATA >5454,>5454,>5454,>5454
     3252 5454 
     3254 5454 
     3256 5454 
0080 3258 5454     COL75  DATA >5454,>5454,>5454,>5454
     325A 5454 
     325C 5454 
     325E 5454 
0081 3260 F8F9     COL76  DATA >F8F9,>F6F6,>F4F5,>F4EE
     3262 F6F6 
     3264 F4F5 
     3266 F4EE 
0082 3268 F8F9     COL77  DATA >F8F9,>F6F6,>F4F5,>F4FE
     326A F6F6 
     326C F4F5 
     326E F4FE 
0083 3270 FBFB     COL78  DATA >FBFB,>FBFB,>FBFB,>FBAB
     3272 FBFB 
     3274 FBFB 
     3276 FBAB 
0084 3278 FAFA     COL79  DATA >FAFA,>FAFA,>FAFA,>FAAB
     327A FAFA 
     327C FAFA 
     327E FAAB 
0085 3280 3023     COL80  DATA >3023,>2323,>2323,>2323
     3282 2323 
     3284 2323 
     3286 2323 
0086 3288 302C     COL81  DATA >302C,>2C2C,>2C2C,>2C2C
     328A 2C2C 
     328C 2C2C 
     328E 2C2C 
0087 3290 1F1F     COL82  DATA >1F1F,>1F1F,>1F1F,>1F1F
     3292 1F1F 
     3294 1F1F 
     3296 1F1F 
0088 3298 1F1F     COL83  DATA >1F1F,>1F1F,>1F1F,>1F1F
     329A 1F1F 
     329C 1F1F 
     329E 1F1F 
0089 32A0 9696     COL84  DATA >9696,>9696,>9696,>9696
     32A2 9696 
     32A4 9696 
     32A6 9696 
0090 32A8 9696     COL85  DATA >9696,>9696,>9696,>9696
     32AA 9696 
     32AC 9696 
     32AE 9696 
0091 32B0 F1F1     COL86  DATA >F1F1,>F1E1,>F1F1,>F1F1
     32B2 F1E1 
     32B4 F1F1 
     32B6 F1F1 
0092 32B8 F1F1     COL87  DATA >F1F1,>F1E1,>F1F1,>F1F1
     32BA F1E1 
     32BC F1F1 
     32BE F1F1 
0093 32C0 2323     COL88  DATA >2323,>2323,>2323,>233C
     32C2 2323 
     32C4 2323 
     32C6 233C 
0094 32C8 2C2C     COL89  DATA >2C2C,>2C2C,>2C2C,>2CCC
     32CA 2C2C 
     32CC 2C2C 
     32CE 2CCC 
0095 32D0 1F1F     COL90  DATA >1F1F,>1F1F,>1F1F,>1F1F
     32D2 1F1F 
     32D4 1F1F 
     32D6 1F1F 
0096 32D8 1F1F     COL91  DATA >1F1F,>1F1F,>1F1F,>1F1F
     32DA 1F1F 
     32DC 1F1F 
     32DE 1F1F 
0097 32E0 9696     COL92  DATA >9696,>9696,>9696,>9696
     32E2 9696 
     32E4 9696 
     32E6 9696 
0098 32E8 9696     COL93  DATA >9696,>9696,>9696,>9696
     32EA 9696 
     32EC 9696 
     32EE 9696 
0099 32F0 F1F1     COL94  DATA >F1F1,>F1E1,>F1F1,>F1F1
     32F2 F1E1 
     32F4 F1F1 
     32F6 F1F1 
0100 32F8 F1F1     COL95  DATA >F1F1,>F1E1,>F1F1,>F1F1
     32FA F1E1 
     32FC F1F1 
     32FE F1F1 
0101 3300 F07F     COL96  DATA >F07F,>7F7F,>7F7F,>7F7F
     3302 7F7F 
     3304 7F7F 
     3306 7F7F 
0102 3308 F074     COL97  DATA >F074,>7474,>7474,>7474
     330A 7474 
     330C 7474 
     330E 7474 
0103 3310 5454     COL98  DATA >5454,>5454,>5454,>5454
     3312 5454 
     3314 5454 
     3316 5454 
0104 3318 5454     COL99  DATA >5454,>5454,>5454,>5454
     331A 5454 
     331C 5454 
     331E 5454 
0105 3320 FFFC     COL100 DATA >FFFC,>FAFB,>FAFA,>F8F9
     3322 FAFB 
     3324 FAFA 
     3326 F8F9 
0106 3328 FFFC     COL101 DATA >FFFC,>FAFB,>FAFA,>F8F9
     332A FAFB 
     332C FAFA 
     332E F8F9 
0107 3330 BBFB     COL102 DATA >BBFB,>FBFB,>FBFB,>FBFB
     3332 FBFB 
     3334 FBFB 
     3336 FBFB 
0108 3338 ABFA     COL103 DATA >ABFA,>FAFA,>FAFA,>FAFA
     333A FAFA 
     333C FAFA 
     333E FAFA 
0109 3340 7F7F     COL104 DATA >7F7F,>7F7F,>7F7F,>7FF4
     3342 7F7F 
     3344 7F7F 
     3346 7FF4 
0110 3348 7474     COL105 DATA >7474,>7474,>7474,>74C4
     334A 7474 
     334C 7474 
     334E 74C4 
0111 3350 5454     COL106 DATA >5454,>5454,>5454,>5454
     3352 5454 
     3354 5454 
     3356 5454 
0112 3358 5454     COL107 DATA >5454,>5454,>5454,>5454
     335A 5454 
     335C 5454 
     335E 5454 
0113 3360 F6F6     COL108 DATA >F6F6,>F4F5,>F4F4,>F2EE
     3362 F4F5 
     3364 F4F4 
     3366 F2EE 
0114 3368 F6F6     COL109 DATA >F6F6,>F4F5,>F4F4,>F2FE
     336A F4F5 
     336C F4F4 
     336E F2FE 
0115 3370 FBFB     COL110 DATA >FBFB,>FBFB,>FBFB,>FBAB
     3372 FBFB 
     3374 FBFB 
     3376 FBAB 
0116 3378 FAFA     COL111 DATA >FAFA,>FAFA,>FAFA,>FAAB
     337A FAFA 
     337C FAFA 
     337E FAAB 
0117 3380 3023     COL112 DATA >3023,>2323,>2323,>2323
     3382 2323 
     3384 2323 
     3386 2323 
0118 3388 302C     COL113 DATA >302C,>2C2C,>2C2C,>2C2C
     338A 2C2C 
     338C 2C2C 
     338E 2C2C 
0119 3390 1F1F     COL114 DATA >1F1F,>1F1F,>1F1F,>1F1F
     3392 1F1F 
     3394 1F1F 
     3396 1F1F 
0120 3398 1F1F     COL115 DATA >1F1F,>1F1F,>1F1F,>1F1F
     339A 1F1F 
     339C 1F1F 
     339E 1F1F 
0121 33A0 9696     COL116 DATA >9696,>9696,>9696,>9696
     33A2 9696 
     33A4 9696 
     33A6 9696 
0122 33A8 9696     COL117 DATA >9696,>9696,>9696,>9696
     33AA 9696 
     33AC 9696 
     33AE 9696 
0123 33B0 F1F1     COL118 DATA >F1F1,>E1F1,>F1F1,>F1F1
     33B2 E1F1 
     33B4 F1F1 
     33B6 F1F1 
0124 33B8 F1F1     COL119 DATA >F1F1,>E1F1,>F1F1,>F1F1
     33BA E1F1 
     33BC F1F1 
     33BE F1F1 
0125 33C0 2323     COL120 DATA >2323,>2323,>2323,>233C
     33C2 2323 
     33C4 2323 
     33C6 233C 
0126 33C8 2C2C     COL121 DATA >2C2C,>2C2C,>2C2C,>2CCC
     33CA 2C2C 
     33CC 2C2C 
     33CE 2CCC 
0127 33D0 1F1F     COL122 DATA >1F1F,>1F1F,>1F1F,>1F1F
     33D2 1F1F 
     33D4 1F1F 
     33D6 1F1F 
0128 33D8 1F1F     COL123 DATA >1F1F,>1F1F,>1F1F,>1F1F
     33DA 1F1F 
     33DC 1F1F 
     33DE 1F1F 
0129 33E0 9696     COL124 DATA >9696,>9696,>9696,>9696
     33E2 9696 
     33E4 9696 
     33E6 9696 
0130 33E8 9696     COL125 DATA >9696,>9696,>9696,>9696
     33EA 9696 
     33EC 9696 
     33EE 9696 
0131 33F0 F1F1     COL126 DATA >F1F1,>E1F1,>F1F1,>F1F1
     33F2 E1F1 
     33F4 F1F1 
     33F6 F1F1 
0132 33F8 F1F1     COL127 DATA >F1F1,>E1F1,>F1F1,>F1F1
     33FA E1F1 
     33FC F1F1 
     33FE F1F1 
0133 3400 F07F     COL128 DATA >F07F,>7F7F,>7F7F,>7F7F
     3402 7F7F 
     3404 7F7F 
     3406 7F7F 
0134 3408 F074     COL129 DATA >F074,>7474,>7474,>7474
     340A 7474 
     340C 7474 
     340E 7474 
0135 3410 5454     COL130 DATA >5454,>5454,>5454,>5454
     3412 5454 
     3414 5454 
     3416 5454 
0136 3418 5454     COL131 DATA >5454,>5454,>5454,>5454
     341A 5454 
     341C 5454 
     341E 5454 
0137 3420 FFFB     COL132 DATA >FFFB,>FAFA,>F8F9,>F6F6
     3422 FAFA 
     3424 F8F9 
     3426 F6F6 
0138 3428 FFFB     COL133 DATA >FFFB,>FAFA,>F8F9,>F6F6
     342A FAFA 
     342C F8F9 
     342E F6F6 
0139 3430 BBFB     COL134 DATA >BBFB,>FBFB,>FBFB,>FBFB
     3432 FBFB 
     3434 FBFB 
     3436 FBFB 
0140 3438 ABFA     COL135 DATA >ABFA,>FAFA,>FAFA,>FAFA
     343A FAFA 
     343C FAFA 
     343E FAFA 
0141 3440 7F7F     COL136 DATA >7F7F,>7F7F,>7F7F,>7FF4
     3442 7F7F 
     3444 7F7F 
     3446 7FF4 
0142 3448 7474     COL137 DATA >7474,>7474,>7474,>74C4
     344A 7474 
     344C 7474 
     344E 74C4 
0143 3450 5454     COL138 DATA >5454,>5454,>5454,>5454
     3452 5454 
     3454 5454 
     3456 5454 
0144 3458 5454     COL139 DATA >5454,>5454,>5454,>5454
     345A 5454 
     345C 5454 
     345E 5454 
0145 3460 F4F5     COL140 DATA >F4F5,>F4F4,>F2F3,>FCEE
     3462 F4F4 
     3464 F2F3 
     3466 FCEE 
0146 3468 F4F5     COL141 DATA >F4F5,>F4F4,>F2F3,>FCFE
     346A F4F4 
     346C F2F3 
     346E FCFE 
0147 3470 FBFB     COL142 DATA >FBFB,>FBFB,>FBFB,>FBAB
     3472 FBFB 
     3474 FBFB 
     3476 FBAB 
0148 3478 FAFA     COL143 DATA >FAFA,>FAFA,>FAFA,>FAAB
     347A FAFA 
     347C FAFA 
     347E FAAB 
0149 3480 F03F     COL144 DATA >F03F,>3F3F,>3F3F,>3F3F
     3482 3F3F 
     3484 3F3F 
     3486 3F3F 
0150 3488 F032     COL145 DATA >F032,>3232,>3232,>3232
     348A 3232 
     348C 3232 
     348E 3232 
0151 3490 1F1F     COL146 DATA >1F1F,>1F1F,>1F1F,>1F1F
     3492 1F1F 
     3494 1F1F 
     3496 1F1F 
0152 3498 1F1F     COL147 DATA >1F1F,>1F1F,>1F1F,>1F1F
     349A 1F1F 
     349C 1F1F 
     349E 1F1F 
0153 34A0 9696     COL148 DATA >9696,>9696,>9696,>9696
     34A2 9696 
     34A4 9696 
     34A6 9696 
0154 34A8 9696     COL149 DATA >9696,>9696,>9696,>9696
     34AA 9696 
     34AC 9696 
     34AE 9696 
0155 34B0 F1F1     COL150 DATA >F1F1,>F1F1,>F1E1,>F1F1
     34B2 F1F1 
     34B4 F1E1 
     34B6 F1F1 
0156 34B8 F1E1     COL151 DATA >F1E1,>F1F1,>F1F1,>F1F1
     34BA F1F1 
     34BC F1F1 
     34BE F1F1 
0157 34C0 3F3F     COL152 DATA >3F3F,>3F3F,>3F3F,>3FF2
     34C2 3F3F 
     34C4 3F3F 
     34C6 3FF2 
0158 34C8 3232     COL153 DATA >3232,>3232,>3232,>32C2
     34CA 3232 
     34CC 3232 
     34CE 32C2 
0159 34D0 1F1F     COL154 DATA >1F1F,>1F1F,>1F1F,>1F1F
     34D2 1F1F 
     34D4 1F1F 
     34D6 1F1F 
0160 34D8 1F1F     COL155 DATA >1F1F,>1F1F,>1F1F,>1F1F
     34DA 1F1F 
     34DC 1F1F 
     34DE 1F1F 
0161 34E0 9696     COL156 DATA >9696,>9696,>9696,>9696
     34E2 9696 
     34E4 9696 
     34E6 9696 
0162 34E8 9696     COL157 DATA >9696,>9696,>9696,>9696
     34EA 9696 
     34EC 9696 
     34EE 9696 
0163 34F0 F1F1     COL158 DATA >F1F1,>F1F1,>F1E1,>F1F1
     34F2 F1F1 
     34F4 F1E1 
     34F6 F1F1 
0164 34F8 F1E1     COL159 DATA >F1E1,>F1F1,>F1F1,>F1F1
     34FA F1F1 
     34FC F1F1 
     34FE F1F1 
0165 3500 F07F     COL160 DATA >F07F,>7F7F,>7F7F,>7F7F
     3502 7F7F 
     3504 7F7F 
     3506 7F7F 
0166 3508 F074     COL161 DATA >F074,>7474,>7474,>7474
     350A 7474 
     350C 7474 
     350E 7474 
0167 3510 5454     COL162 DATA >5454,>5454,>5454,>5454
     3512 5454 
     3514 5454 
     3516 5454 
0168 3518 5454     COL163 DATA >5454,>5454,>5454,>5454
     351A 5454 
     351C 5454 
     351E 5454 
0169 3520 FFFA     COL164 DATA >FFFA,>F8F9,>F6F6,>F4F5
     3522 F8F9 
     3524 F6F6 
     3526 F4F5 
0170 3528 FFFA     COL165 DATA >FFFA,>F8F9,>F6F6,>F4F5
     352A F8F9 
     352C F6F6 
     352E F4F5 
0171 3530 BBFB     COL166 DATA >BBFB,>FBFB,>FBFB,>FBFB
     3532 FBFB 
     3534 FBFB 
     3536 FBFB 
0172 3538 ABFA     COL167 DATA >ABFA,>FAFA,>FAFA,>FAFA
     353A FAFA 
     353C FAFA 
     353E FAFA 
0173 3540 7F7F     COL168 DATA >7F7F,>7F7F,>7F7F,>7FF4
     3542 7F7F 
     3544 7F7F 
     3546 7FF4 
0174 3548 7474     COL169 DATA >7474,>7474,>7474,>74C4
     354A 7474 
     354C 7474 
     354E 74C4 
0175 3550 5454     COL170 DATA >5454,>5454,>5454,>5454
     3552 5454 
     3554 5454 
     3556 5454 
0176 3558 5454     COL171 DATA >5454,>5454,>5454,>5454
     355A 5454 
     355C 5454 
     355E 5454 
0177 3560 F4F4     COL172 DATA >F4F4,>F2F3,>FCFC,>FAEE
     3562 F2F3 
     3564 FCFC 
     3566 FAEE 
0178 3568 F4F4     COL173 DATA >F4F4,>F2F3,>FCFC,>FAFE
     356A F2F3 
     356C FCFC 
     356E FAFE 
0179 3570 FBFB     COL174 DATA >FBFB,>FBFB,>FBFB,>FBAB
     3572 FBFB 
     3574 FBFB 
     3576 FBAB 
0180 3578 FAFA     COL175 DATA >FAFA,>FAFA,>FAFA,>FAAB
     357A FAFA 
     357C FAFA 
     357E FAAB 
0181 3580 F03F     COL176 DATA >F03F,>3F3F,>3F3F,>3F3F
     3582 3F3F 
     3584 3F3F 
     3586 3F3F 
0182 3588 F032     COL177 DATA >F032,>3232,>3232,>3232
     358A 3232 
     358C 3232 
     358E 3232 
0183 3590 1F1F     COL178 DATA >1F1F,>1F1F,>1F1F,>1F1F
     3592 1F1F 
     3594 1F1F 
     3596 1F1F 
0184 3598 1F1F     COL179 DATA >1F1F,>1F1F,>1F1F,>1F1F
     359A 1F1F 
     359C 1F1F 
     359E 1F1F 
0185 35A0 9696     COL180 DATA >9696,>9696,>9696,>9696
     35A2 9696 
     35A4 9696 
     35A6 9696 
0186 35A8 9696     COL181 DATA >9696,>9696,>9696,>9696
     35AA 9696 
     35AC 9696 
     35AE 9696 
0187 35B0 F1F1     COL182 DATA >F1F1,>F1F1,>E1F1,>F1F1
     35B2 F1F1 
     35B4 E1F1 
     35B6 F1F1 
0188 35B8 E1F1     COL183 DATA >E1F1,>F1F1,>F1F1,>F1F1
     35BA F1F1 
     35BC F1F1 
     35BE F1F1 
0189 35C0 3F3F     COL184 DATA >3F3F,>3F3F,>3F3F,>3FF2
     35C2 3F3F 
     35C4 3F3F 
     35C6 3FF2 
0190 35C8 3232     COL185 DATA >3232,>3232,>3232,>32C2
     35CA 3232 
     35CC 3232 
     35CE 32C2 
0191 35D0 1F1F     COL186 DATA >1F1F,>1F1F,>1F1F,>1F1F
     35D2 1F1F 
     35D4 1F1F 
     35D6 1F1F 
0192 35D8 1F1F     COL187 DATA >1F1F,>1F1F,>1F1F,>1F1F
     35DA 1F1F 
     35DC 1F1F 
     35DE 1F1F 
0193 35E0 9696     COL188 DATA >9696,>9696,>9696,>9696
     35E2 9696 
     35E4 9696 
     35E6 9696 
0194 35E8 9696     COL189 DATA >9696,>9696,>9696,>9696
     35EA 9696 
     35EC 9696 
     35EE 9696 
0195 35F0 F1F1     COL190 DATA >F1F1,>F1F1,>E1F1,>F1F1
     35F2 F1F1 
     35F4 E1F1 
     35F6 F1F1 
0196 35F8 E1F1     COL191 DATA >E1F1,>F1F1,>F1F1,>F1F1
     35FA F1F1 
     35FC F1F1 
     35FE F1F1 
0197 3600 F07F     COL192 DATA >F07F,>7F7F,>7F7F,>7F7F
     3602 7F7F 
     3604 7F7F 
     3606 7F7F 
0198 3608 F074     COL193 DATA >F074,>7474,>7474,>7474
     360A 7474 
     360C 7474 
     360E 7474 
0199 3610 5454     COL194 DATA >5454,>5454,>5454,>5454
     3612 5454 
     3614 5454 
     3616 5454 
0200 3618 5454     COL195 DATA >5454,>5454,>5454,>5454
     361A 5454 
     361C 5454 
     361E 5454 
0201 3620 FFF9     COL196 DATA >FFF9,>F6F6,>F4F5,>F4F4
     3622 F6F6 
     3624 F4F5 
     3626 F4F4 
0202 3628 FFF9     COL197 DATA >FFF9,>F6F6,>F4F5,>F4F4
     362A F6F6 
     362C F4F5 
     362E F4F4 
0203 3630 BBFB     COL198 DATA >BBFB,>FBFB,>FBFB,>FBFB
     3632 FBFB 
     3634 FBFB 
     3636 FBFB 
0204 3638 ABFA     COL199 DATA >ABFA,>FAFA,>FAFA,>FAFA
     363A FAFA 
     363C FAFA 
     363E FAFA 
0205 3640 7F7F     COL200 DATA >7F7F,>7F7F,>7F7F,>7FF4
     3642 7F7F 
     3644 7F7F 
     3646 7FF4 
0206 3648 7474     COL201 DATA >7474,>7474,>7474,>74C4
     364A 7474 
     364C 7474 
     364E 74C4 
0207 3650 5454     COL202 DATA >5454,>5454,>5454,>5454
     3652 5454 
     3654 5454 
     3656 5454 
0208 3658 5454     COL203 DATA >5454,>5454,>5454,>5454
     365A 5454 
     365C 5454 
     365E 5454 
0209 3660 F2F3     COL204 DATA >F2F3,>FCFC,>FAFB,>FAEE
     3662 FCFC 
     3664 FAFB 
     3666 FAEE 
0210 3668 F2F3     COL205 DATA >F2F3,>FCFC,>FAFB,>FAFE
     366A FCFC 
     366C FAFB 
     366E FAFE 
0211 3670 FBFB     COL206 DATA >FBFB,>FBFB,>FBFB,>FBAB
     3672 FBFB 
     3674 FBFB 
     3676 FBAB 
0212 3678 FAFA     COL207 DATA >FAFA,>FAFA,>FAFA,>FAAB
     367A FAFA 
     367C FAFA 
     367E FAAB 
0213 3680 F03F     COL208 DATA >F03F,>3F3F,>3F3F,>3F3F
     3682 3F3F 
     3684 3F3F 
     3686 3F3F 
0214 3688 F032     COL209 DATA >F032,>3232,>3232,>3232
     368A 3232 
     368C 3232 
     368E 3232 
0215 3690 1F1F     COL210 DATA >1F1F,>1F1F,>1F1F,>1F1F
     3692 1F1F 
     3694 1F1F 
     3696 1F1F 
0216 3698 1F1F     COL211 DATA >1F1F,>1F1F,>1F1F,>1F1F
     369A 1F1F 
     369C 1F1F 
     369E 1F1F 
0217 36A0 9696     COL212 DATA >9696,>9696,>9696,>9696
     36A2 9696 
     36A4 9696 
     36A6 9696 
0218 36A8 9696     COL213 DATA >9696,>9696,>9696,>9696
     36AA 9696 
     36AC 9696 
     36AE 9696 
0219 36B0 F1F1     COL214 DATA >F1F1,>F1E1,>F1F1,>F1F1
     36B2 F1E1 
     36B4 F1F1 
     36B6 F1F1 
0220 36B8 F1F1     COL215 DATA >F1F1,>F1F1,>E1F1,>F1F1
     36BA F1F1 
     36BC E1F1 
     36BE F1F1 
0221 36C0 3F3F     COL216 DATA >3F3F,>3F3F,>3F3F,>3FF2
     36C2 3F3F 
     36C4 3F3F 
     36C6 3FF2 
0222 36C8 3232     COL217 DATA >3232,>3232,>3232,>32C2
     36CA 3232 
     36CC 3232 
     36CE 32C2 
0223 36D0 1F1F     COL218 DATA >1F1F,>1F1F,>1F1F,>1F1F
     36D2 1F1F 
     36D4 1F1F 
     36D6 1F1F 
0224 36D8 1F1F     COL219 DATA >1F1F,>1F1F,>1F1F,>1F1F
     36DA 1F1F 
     36DC 1F1F 
     36DE 1F1F 
0225 36E0 9696     COL220 DATA >9696,>9696,>9696,>9696
     36E2 9696 
     36E4 9696 
     36E6 9696 
0226 36E8 9696     COL221 DATA >9696,>9696,>9696,>9696
     36EA 9696 
     36EC 9696 
     36EE 9696 
0227 36F0 F1F1     COL222 DATA >F1F1,>F1E1,>F1F1,>F1F1
     36F2 F1E1 
     36F4 F1F1 
     36F6 F1F1 
0228 36F8 F1F1     COL223 DATA >F1F1,>F1F1,>E1F1,>F1F1
     36FA F1F1 
     36FC E1F1 
     36FE F1F1 
0229 3700 F07F     COL224 DATA >F07F,>7F7F,>7F7F,>7F7F
     3702 7F7F 
     3704 7F7F 
     3706 7F7F 
0230 3708 F074     COL225 DATA >F074,>7474,>7474,>7474
     370A 7474 
     370C 7474 
     370E 7474 
0231 3710 5454     COL226 DATA >5454,>5454,>5454,>5454
     3712 5454 
     3714 5454 
     3716 5454 
0232 3718 5454     COL227 DATA >5454,>5454,>5454,>5454
     371A 5454 
     371C 5454 
     371E 5454 
0233 3720 FFF6     COL228 DATA >FFF6,>F4F5,>F4F4,>F2F3
     3722 F4F5 
     3724 F4F4 
     3726 F2F3 
0234 3728 FFF6     COL229 DATA >FFF6,>F4F5,>F4F4,>F2F3
     372A F4F5 
     372C F4F4 
     372E F2F3 
0235 3730 BBFB     COL230 DATA >BBFB,>FBFB,>FBFB,>FBFB
     3732 FBFB 
     3734 FBFB 
     3736 FBFB 
0236 3738 ABFA     COL231 DATA >ABFA,>FAFA,>FAFA,>FAFA
     373A FAFA 
     373C FAFA 
     373E FAFA 
0237 3740 7F7F     COL232 DATA >7F7F,>7F7F,>7F7F,>7FF4
     3742 7F7F 
     3744 7F7F 
     3746 7FF4 
0238 3748 7474     COL233 DATA >7474,>7474,>7474,>74C4
     374A 7474 
     374C 7474 
     374E 74C4 
0239 3750 5454     COL234 DATA >5454,>5454,>5454,>5454
     3752 5454 
     3754 5454 
     3756 5454 
0240 3758 5454     COL235 DATA >5454,>5454,>5454,>5454
     375A 5454 
     375C 5454 
     375E 5454 
0241 3760 FCFC     COL236 DATA >FCFC,>FAFB,>FAFA,>F8EE
     3762 FAFB 
     3764 FAFA 
     3766 F8EE 
0242 3768 FCFC     COL237 DATA >FCFC,>FAFB,>FAFA,>F8FE
     376A FAFB 
     376C FAFA 
     376E F8FE 
0243 3770 FBFB     COL238 DATA >FBFB,>FBFB,>FBFB,>FBAB
     3772 FBFB 
     3774 FBFB 
     3776 FBAB 
0244 3778 FAFA     COL239 DATA >FAFA,>FAFA,>FAFA,>FAAB
     377A FAFA 
     377C FAFA 
     377E FAAB 
0245 3780 F03F     COL240 DATA >F03F,>3F3F,>3F3F,>3F3F
     3782 3F3F 
     3784 3F3F 
     3786 3F3F 
0246 3788 F032     COL241 DATA >F032,>3232,>3232,>3232
     378A 3232 
     378C 3232 
     378E 3232 
0247 3790 1F1F     COL242 DATA >1F1F,>1F1F,>1F1F,>1F1F
     3792 1F1F 
     3794 1F1F 
     3796 1F1F 
0248 3798 1F1F     COL243 DATA >1F1F,>1F1F,>1F1F,>1F1F
     379A 1F1F 
     379C 1F1F 
     379E 1F1F 
0249 37A0 9696     COL244 DATA >9696,>9696,>9696,>9696
     37A2 9696 
     37A4 9696 
     37A6 9696 
0250 37A8 9696     COL245 DATA >9696,>9696,>9696,>9696
     37AA 9696 
     37AC 9696 
     37AE 9696 
0251 37B0 F1F1     COL246 DATA >F1F1,>E1F1,>F1F1,>F1F1
     37B2 E1F1 
     37B4 F1F1 
     37B6 F1F1 
0252 37B8 F1F1     COL247 DATA >F1F1,>F1E1,>F1F1,>F1F1
     37BA F1E1 
     37BC F1F1 
     37BE F1F1 
0253 37C0 3F3F     COL248 DATA >3F3F,>3F3F,>3F3F,>3FF2
     37C2 3F3F 
     37C4 3F3F 
     37C6 3FF2 
0254 37C8 3232     COL249 DATA >3232,>3232,>3232,>32C2
     37CA 3232 
     37CC 3232 
     37CE 32C2 
0255 37D0 1F1F     COL250 DATA >1F1F,>1F1F,>1F1F,>1F1F
     37D2 1F1F 
     37D4 1F1F 
     37D6 1F1F 
0256 37D8 1F1F     COL251 DATA >1F1F,>1F1F,>1F1F,>1F1F
     37DA 1F1F 
     37DC 1F1F 
     37DE 1F1F 
0257 37E0 9696     COL252 DATA >9696,>9696,>9696,>9696
     37E2 9696 
     37E4 9696 
     37E6 9696 
0258 37E8 9696     COL253 DATA >9696,>9696,>9696,>9696
     37EA 9696 
     37EC 9696 
     37EE 9696 
0259 37F0 F1F1     COL254 DATA >F1F1,>E1F1,>F1F1,>F1F1
     37F2 E1F1 
     37F4 F1F1 
     37F6 F1F1 
0260 37F8 F1F1     COL255 DATA >F1F1,>F1E1,>F1F1,>F1F1
     37FA F1E1 
     37FC F1F1 
     37FE F1F1 
0261               
0262               ****************************************
0263               * Character Patterns
0264               ****************************************
0265               PATS
0266 3800 FF7F     PAT0   DATA >FF7F,>425F,>5F5F,>7F5F
     3802 425F 
     3804 5F5F 
     3806 7F5F 
0267 3808 FFFE     PAT1   DATA >FFFE,>FEFE,>FEFE,>FEFE
     380A FEFE 
     380C FEFE 
     380E FEFE 
0268 3810 F36D     PAT2   DATA >F36D,>9EF9,>F6CF,>39F6
     3812 9EF9 
     3814 F6CF 
     3816 39F6 
0269 3818 FF9B     PAT3   DATA >FF9B,>64FF,>79B6,>CFF9
     381A 64FF 
     381C 79B6 
     381E CFF9 
0270 3820 8080     PAT4   DATA >8080,>878F,>9F9C,>9C80
     3822 878F 
     3824 9F9C 
     3826 9C80 
0271 3828 0101     PAT5   DATA >0101,>E1F1,>F939,>3971
     382A E1F1 
     382C F939 
     382E 3971 
0272 3830 007F     PAT6   DATA >007F,>7C70,>6161,>4141
     3832 7C70 
     3834 6161 
     3836 4141 
0273 3838 01FE     PAT7   DATA >01FE,>3E0E,>8686,>8282
     383A 3E0E 
     383C 8686 
     383E 8282 
0274 3840 7F7F     PAT8   DATA >7F7F,>7F7F,>7F7F,>7F80
     3842 7F7F 
     3844 7F7F 
     3846 7F80 
0275 3848 FAFE     PAT9   DATA >FAFE,>FAFA,>FA42,>FE00
     384A FAFA 
     384C FA42 
     384E FE00 
0276 3850 6F9F     PAT10  DATA >6F9F,>F36C,>9FE7,>788F
     3852 F36C 
     3854 9FE7 
     3856 788F 
0277 3858 36CF     PAT11  DATA >36CF,>79B6,>CFFC,>639F
     385A 79B6 
     385C CFFC 
     385E 639F 
0278 3860 8081     PAT12  DATA >8081,>8180,>8181,>8080
     3862 8180 
     3864 8181 
     3866 8080 
0279 3868 E1C1     PAT13  DATA >E1C1,>C101,>C1C1,>0101
     386A C101 
     386C C1C1 
     386E 0101 
0280 3870 4141     PAT14  DATA >4141,>6160,>707C,>7F7F
     3872 6160 
     3874 707C 
     3876 7F7F 
0281 3878 8282     PAT15  DATA >8282,>8606,>0E3E,>FEFF
     387A 8606 
     387C 0E3E 
     387E FEFF 
0282 3880 FF7F     PAT16  DATA >FF7F,>7E7D,>7B77,>637B
     3882 7E7D 
     3884 7B77 
     3886 637B 
0283 3888 FFFE     PAT17  DATA >FFFE,>7EBE,>DEEE,>C6DE
     388A 7EBE 
     388C DEEE 
     388E C6DE 
0284 3890 0F0F     PAT18  DATA >0F0F,>0F0F,>F0F0,>F0F0
     3892 0F0F 
     3894 F0F0 
     3896 F0F0 
0285 3898 0F0F     PAT19  DATA >0F0F,>0F0F,>F0F0,>F0F0
     389A 0F0F 
     389C F0F0 
     389E F0F0 
0286 38A0 8000     PAT20  DATA >8000,>3030,>0000,>0000
     38A2 3030 
     38A4 0000 
     38A6 0000 
0287 38A8 100F     PAT21  DATA >100F,>0060,>9090,>6000
     38AA 0060 
     38AC 9090 
     38AE 6000 
0288 38B0 0020     PAT22  DATA >0020,>0000,>0002,>0000
     38B2 0000 
     38B4 0002 
     38B6 0000 
0289 38B8 0000     PAT23  DATA >0000,>1000,>0004,>0000
     38BA 1000 
     38BC 0004 
     38BE 0000 
0290 38C0 7B7B     PAT24  DATA >7B7B,>7B7B,>7B78,>7F80
     38C2 7B7B 
     38C4 7B78 
     38C6 7F80 
0291 38C8 DEDE     PAT25  DATA >DEDE,>DEDE,>DE1E,>FE00
     38CA DEDE 
     38CC DE1E 
     38CE FE00 
0292 38D0 0F0F     PAT26  DATA >0F0F,>0F0F,>F0F0,>F0F0
     38D2 0F0F 
     38D4 F0F0 
     38D6 F0F0 
0293 38D8 0F0F     PAT27  DATA >0F0F,>0F0F,>F0F0,>F0F0
     38DA 0F0F 
     38DC F0F0 
     38DE F0F0 
0294 38E0 000F     PAT28  DATA >000F,>1090,>5050,>4F40
     38E2 1090 
     38E4 5050 
     38E6 4F40 
0295 38E8 0000     PAT29  DATA >0000,>8F90,>A0A0,>2020
     38EA 8F90 
     38EC A0A0 
     38EE 2020 
0296 38F0 0020     PAT30  DATA >0020,>0000,>0002,>0000
     38F2 0000 
     38F4 0002 
     38F6 0000 
0297 38F8 0000     PAT31  DATA >0000,>1000,>0004,>0000
     38FA 1000 
     38FC 0004 
     38FE 0000 
0298 3900 FF7F     PAT32  DATA >FF7F,>425F,>5F5F,>7F5F
     3902 425F 
     3904 5F5F 
     3906 7F5F 
0299 3908 FFFE     PAT33  DATA >FFFE,>FEFE,>FEFE,>FEFE
     390A FEFE 
     390C FEFE 
     390E FEFE 
0300 3910 F9B6     PAT34  DATA >F9B6,>4FFC,>FB67,>9C7B
     3912 4FFC 
     3914 FB67 
     3916 9C7B 
0301 3918 FFCD     PAT35  DATA >FFCD,>32FF,>BC5B,>E7FC
     391A 32FF 
     391C BC5B 
     391E E7FC 
0302 3920 8080     PAT36  DATA >8080,>878F,>9F9C,>9C80
     3922 878F 
     3924 9F9C 
     3926 9C80 
0303 3928 0101     PAT37  DATA >0101,>E1F1,>F939,>3971
     392A E1F1 
     392C F939 
     392E 3971 
0304 3930 007F     PAT38  DATA >007F,>7C70,>7161,>6161
     3932 7C70 
     3934 7161 
     3936 6161 
0305 3938 01FE     PAT39  DATA >01FE,>3E0E,>8E86,>8686
     393A 3E0E 
     393C 8E86 
     393E 8686 
0306 3940 7F7F     PAT40  DATA >7F7F,>7F7F,>7F7F,>7F80
     3942 7F7F 
     3944 7F7F 
     3946 7F80 
0307 3948 FAFE     PAT41  DATA >FAFE,>FAFA,>FA42,>FE00
     394A FAFA 
     394C FA42 
     394E FE00 
0308 3950 B7CE     PAT42  DATA >B7CE,>F936,>CFF3,>3CC7
     3952 F936 
     3954 CFF3 
     3956 3CC7 
0309 3958 1BE7     PAT43  DATA >1BE7,>BC5B,>E77E,>B1CF
     395A BC5B 
     395C E77E 
     395E B1CF 
0310 3960 8081     PAT44  DATA >8081,>8180,>8181,>8080
     3962 8180 
     3964 8181 
     3966 8080 
0311 3968 E1C1     PAT45  DATA >E1C1,>C101,>C1C1,>0101
     396A C101 
     396C C1C1 
     396E 0101 
0312 3970 6161     PAT46  DATA >6161,>6170,>707C,>7F7F
     3972 6170 
     3974 707C 
     3976 7F7F 
0313 3978 8686     PAT47  DATA >8686,>860E,>0E3E,>FEFF
     397A 860E 
     397C 0E3E 
     397E FEFF 
0314 3980 FF7F     PAT48  DATA >FF7F,>7E7D,>7B77,>637B
     3982 7E7D 
     3984 7B77 
     3986 637B 
0315 3988 FFFE     PAT49  DATA >FFFE,>7EBE,>DEEE,>C6DE
     398A 7EBE 
     398C DEEE 
     398E C6DE 
0316 3990 1E1E     PAT50  DATA >1E1E,>1E1E,>E1E1,>E1E1
     3992 1E1E 
     3994 E1E1 
     3996 E1E1 
0317 3998 1E1E     PAT51  DATA >1E1E,>1E1E,>E1E1,>E1E1
     399A 1E1E 
     399C E1E1 
     399E E1E1 
0318 39A0 0030     PAT52  DATA >0030,>4849,>3101,>0100
     39A2 4849 
     39A4 3101 
     39A6 0100 
0319 39A8 0000     PAT53  DATA >0000,>F008,>0808,>08F0
     39AA F008 
     39AC 0808 
     39AE 08F0 
0320 39B0 2000     PAT54  DATA >2000,>0000,>0200,>0000
     39B2 0000 
     39B4 0200 
     39B6 0000 
0321 39B8 0010     PAT55  DATA >0010,>0000,>0400,>0000
     39BA 0000 
     39BC 0400 
     39BE 0000 
0322 39C0 7B7B     PAT56  DATA >7B7B,>7B7B,>7B78,>7F80
     39C2 7B7B 
     39C4 7B78 
     39C6 7F80 
0323 39C8 DEDE     PAT57  DATA >DEDE,>DEDE,>DE1E,>FE00
     39CA DEDE 
     39CC DE1E 
     39CE FE00 
0324 39D0 1E1E     PAT58  DATA >1E1E,>1E1E,>E1E1,>E1E1
     39D2 1E1E 
     39D4 E1E1 
     39D6 E1E1 
0325 39D8 1E1E     PAT59  DATA >1E1E,>1E1E,>E1E1,>E1E1
     39DA 1E1E 
     39DC E1E1 
     39DE E1E1 
0326 39E0 0F10     PAT60  DATA >0F10,>2020,>2020,>100F
     39E2 2020 
     39E4 2020 
     39E6 100F 
0327 39E8 0080     PAT61  DATA >0080,>7070,>4040,>8000
     39EA 7070 
     39EC 4040 
     39EE 8000 
0328 39F0 2000     PAT62  DATA >2000,>0000,>0200,>0000
     39F2 0000 
     39F4 0200 
     39F6 0000 
0329 39F8 0010     PAT63  DATA >0010,>0000,>0400,>0000
     39FA 0000 
     39FC 0400 
     39FE 0000 
0330 3A00 FF7F     PAT64  DATA >FF7F,>425F,>5F5F,>7F5F
     3A02 425F 
     3A04 5F5F 
     3A06 7F5F 
0331 3A08 FFFE     PAT65  DATA >FFFE,>FEFE,>FEFE,>FEFE
     3A0A FEFE 
     3A0C FEFE 
     3A0E FEFE 
0332 3A10 7C9B     PAT66  DATA >7C9B,>E71E,>FDF3,>CE3D
     3A12 E71E 
     3A14 FDF3 
     3A16 CE3D 
0333 3A18 FF66     PAT67  DATA >FF66,>99FF,>5EAD,>F37E
     3A1A 99FF 
     3A1C 5EAD 
     3A1E F37E 
0334 3A20 8080     PAT68  DATA >8080,>878F,>9F9C,>9C80
     3A22 878F 
     3A24 9F9C 
     3A26 9C80 
0335 3A28 0101     PAT69  DATA >0101,>E1F1,>F939,>3971
     3A2A E1F1 
     3A2C F939 
     3A2E 3971 
0336 3A30 007F     PAT70  DATA >007F,>7C78,>7870,>7070
     3A32 7C78 
     3A34 7870 
     3A36 7070 
0337 3A38 01FE     PAT71  DATA >01FE,>3E1E,>9E8E,>8E8E
     3A3A 3E1E 
     3A3C 9E8E 
     3A3E 8E8E 
0338 3A40 7F7F     PAT72  DATA >7F7F,>7F7F,>7F7F,>7F80
     3A42 7F7F 
     3A44 7F7F 
     3A46 7F80 
0339 3A48 FAFE     PAT73  DATA >FAFE,>FAFA,>FA42,>FE00
     3A4A FAFA 
     3A4C FA42 
     3A4E FE00 
0340 3A50 DBE7     PAT74  DATA >DBE7,>7C9B,>E779,>9EE3
     3A52 7C9B 
     3A54 E779 
     3A56 9EE3 
0341 3A58 8DF3     PAT75  DATA >8DF3,>5EAD,>F33F,>D8E7
     3A5A 5EAD 
     3A5C F33F 
     3A5E D8E7 
0342 3A60 8081     PAT76  DATA >8081,>8180,>8181,>8080
     3A62 8180 
     3A64 8181 
     3A66 8080 
0343 3A68 E1C1     PAT77  DATA >E1C1,>C101,>C1C1,>0101
     3A6A C101 
     3A6C C1C1 
     3A6E 0101 
0344 3A70 7070     PAT78  DATA >7070,>7078,>787C,>7F7F
     3A72 7078 
     3A74 787C 
     3A76 7F7F 
0345 3A78 8E8E     PAT79  DATA >8E8E,>8E1E,>1E3E,>FEFF
     3A7A 8E1E 
     3A7C 1E3E 
     3A7E FEFF 
0346 3A80 FF7F     PAT80  DATA >FF7F,>7E7D,>7B77,>637B
     3A82 7E7D 
     3A84 7B77 
     3A86 637B 
0347 3A88 FFFE     PAT81  DATA >FFFE,>7EBE,>DEEE,>C6DE
     3A8A 7EBE 
     3A8C DEEE 
     3A8E C6DE 
0348 3A90 3C3C     PAT82  DATA >3C3C,>3C3C,>C3C3,>C3C3
     3A92 3C3C 
     3A94 C3C3 
     3A96 C3C3 
0349 3A98 3C3C     PAT83  DATA >3C3C,>3C3C,>C3C3,>C3C3
     3A9A 3C3C 
     3A9C C3C3 
     3A9E C3C3 
0350 3AA0 7884     PAT84  DATA >7884,>8586,>867A,>0201
     3AA2 8586 
     3AA4 867A 
     3AA6 0201 
0351 3AA8 00F0     PAT85  DATA >00F0,>0804,>0404,>0408
     3AAA 0804 
     3AAC 0404 
     3AAE 0408 
0352 3AB0 0000     PAT86  DATA >0000,>0002,>0000,>0020
     3AB2 0002 
     3AB4 0000 
     3AB6 0020 
0353 3AB8 1000     PAT87  DATA >1000,>0004,>0000,>0000
     3ABA 0004 
     3ABC 0000 
     3ABE 0000 
0354 3AC0 7B7B     PAT88  DATA >7B7B,>7B7B,>7B78,>7F80
     3AC2 7B7B 
     3AC4 7B78 
     3AC6 7F80 
0355 3AC8 DEDE     PAT89  DATA >DEDE,>DEDE,>DE1E,>FE00
     3ACA DEDE 
     3ACC DE1E 
     3ACE FE00 
0356 3AD0 3C3C     PAT90  DATA >3C3C,>3C3C,>C3C3,>C3C3
     3AD2 3C3C 
     3AD4 C3C3 
     3AD6 C3C3 
0357 3AD8 3C3C     PAT91  DATA >3C3C,>3C3C,>C3C3,>C3C3
     3ADA 3C3C 
     3ADC C3C3 
     3ADE C3C3 
0358 3AE0 0000     PAT92  DATA >0000,>0000,>0606,>0000
     3AE2 0000 
     3AE4 0606 
     3AE6 0000 
0359 3AE8 F030     PAT93  DATA >F030,>4848,>3000,>0000
     3AEA 4848 
     3AEC 3000 
     3AEE 0000 
0360 3AF0 0000     PAT94  DATA >0000,>0002,>0000,>0020
     3AF2 0002 
     3AF4 0000 
     3AF6 0020 
0361 3AF8 1000     PAT95  DATA >1000,>0004,>0000,>0000
     3AFA 0004 
     3AFC 0000 
     3AFE 0000 
0362 3B00 FF7F     PAT96  DATA >FF7F,>425F,>5F5F,>7F5F
     3B02 425F 
     3B04 5F5F 
     3B06 7F5F 
0363 3B08 FFFE     PAT97  DATA >FFFE,>FEFE,>FEFE,>FEFE
     3B0A FEFE 
     3B0C FEFE 
     3B0E FEFE 
0364 3B10 9E6D     PAT98  DATA >9E6D,>F31F,>E6F9,>679E
     3B12 F31F 
     3B14 E6F9 
     3B16 679E 
0365 3B18 FF33     PAT99  DATA >FF33,>CCFF,>2FD6,>F93F
     3B1A CCFF 
     3B1C 2FD6 
     3B1E F93F 
0366 3B20 8080     PAT100 DATA >8080,>878F,>9F9C,>9C80
     3B22 878F 
     3B24 9F9C 
     3B26 9C80 
0367 3B28 0101     PAT101 DATA >0101,>E1F1,>F939,>3971
     3B2A E1F1 
     3B2C F939 
     3B2E 3971 
0368 3B30 007F     PAT102 DATA >007F,>7C7C,>7878,>7878
     3B32 7C7C 
     3B34 7878 
     3B36 7878 
0369 3B38 01FE     PAT103 DATA >01FE,>3E1E,>9E9E,>9E9E
     3B3A 3E1E 
     3B3C 9E9E 
     3B3E 9E9E 
0370 3B40 7F7F     PAT104 DATA >7F7F,>7F7F,>7F7F,>7F80
     3B42 7F7F 
     3B44 7F7F 
     3B46 7F80 
0371 3B48 FAFE     PAT105 DATA >FAFE,>FAFA,>FA42,>FE00
     3B4A FAFA 
     3B4C FA42 
     3B4E FE00 
0372 3B50 EDF3     PAT106 DATA >EDF3,>3ECD,>F3BC,>4FF1
     3B52 3ECD 
     3B54 F3BC 
     3B56 4FF1 
0373 3B58 C7F8     PAT107 DATA >C7F8,>2FD6,>F99F,>6CF3
     3B5A 2FD6 
     3B5C F99F 
     3B5E 6CF3 
0374 3B60 8081     PAT108 DATA >8081,>8180,>8181,>8080
     3B62 8180 
     3B64 8181 
     3B66 8080 
0375 3B68 E1C1     PAT109 DATA >E1C1,>C101,>C1C1,>0101
     3B6A C101 
     3B6C C1C1 
     3B6E 0101 
0376 3B70 7878     PAT110 DATA >7878,>7878,>7C7C,>7F7F
     3B72 7878 
     3B74 7C7C 
     3B76 7F7F 
0377 3B78 9E9E     PAT111 DATA >9E9E,>9E1E,>3E3E,>FEFF
     3B7A 9E1E 
     3B7C 3E3E 
     3B7E FEFF 
0378 3B80 FF7F     PAT112 DATA >FF7F,>7E7D,>7B77,>637B
     3B82 7E7D 
     3B84 7B77 
     3B86 637B 
0379 3B88 FFFE     PAT113 DATA >FFFE,>7EBE,>DEEE,>C6DE
     3B8A 7EBE 
     3B8C DEEE 
     3B8E C6DE 
0380 3B90 7878     PAT114 DATA >7878,>7878,>8787,>8787
     3B92 7878 
     3B94 8787 
     3B96 8787 
0381 3B98 7878     PAT115 DATA >7878,>7878,>8787,>8787
     3B9A 7878 
     3B9C 8787 
     3B9E 8787 
0382 3BA0 8402     PAT116 DATA >8402,>0202,>0284,>7800
     3BA2 0202 
     3BA4 0284 
     3BA6 7800 
0383 3BA8 0001     PAT117 DATA >0001,>0161,>6100,>0000
     3BAA 0161 
     3BAC 6100 
     3BAE 0000 
0384 3BB0 0000     PAT118 DATA >0000,>0200,>0000,>2000
     3BB2 0200 
     3BB4 0000 
     3BB6 2000 
0385 3BB8 0000     PAT119 DATA >0000,>0400,>0000,>0010
     3BBA 0400 
     3BBC 0000 
     3BBE 0010 
0386 3BC0 7B7B     PAT120 DATA >7B7B,>7B7B,>7B78,>7F80
     3BC2 7B7B 
     3BC4 7B78 
     3BC6 7F80 
0387 3BC8 DEDE     PAT121 DATA >DEDE,>DEDE,>DE1E,>FE00
     3BCA DEDE 
     3BCC DE1E 
     3BCE FE00 
0388 3BD0 7878     PAT122 DATA >7878,>7878,>8787,>8787
     3BD2 7878 
     3BD4 8787 
     3BD6 8787 
0389 3BD8 7878     PAT123 DATA >7878,>7878,>8787,>8787
     3BDA 7878 
     3BDC 8787 
     3BDE 8787 
0390 3BE0 0000     PAT124 DATA >0000,>0006,>0909,>0678
     3BE2 0006 
     3BE4 0909 
     3BE6 0678 
0391 3BE8 7884     PAT125 DATA >7884,>8484,>8478,>0000
     3BEA 8484 
     3BEC 8478 
     3BEE 0000 
0392 3BF0 0000     PAT126 DATA >0000,>0200,>0000,>2000
     3BF2 0200 
     3BF4 0000 
     3BF6 2000 
0393 3BF8 0000     PAT127 DATA >0000,>0400,>0000,>0010
     3BFA 0400 
     3BFC 0000 
     3BFE 0010 
0394 3C00 FF7F     PAT128 DATA >FF7F,>425F,>5F5F,>7F5F
     3C02 425F 
     3C04 5F5F 
     3C06 7F5F 
0395 3C08 FFFE     PAT129 DATA >FFFE,>FEFE,>FEFE,>FEFE
     3C0A FEFE 
     3C0C FEFE 
     3C0E FEFE 
0396 3C10 4FB6     PAT130 DATA >4FB6,>F90F,>F3FC,>B34F
     3C12 F90F 
     3C14 F3FC 
     3C16 B34F 
0397 3C18 FE99     PAT131 DATA >FE99,>66FF,>9F63,>FC9F
     3C1A 66FF 
     3C1C 9F63 
     3C1E FC9F 
0398 3C20 8080     PAT132 DATA >8080,>878F,>9F9C,>9C80
     3C22 878F 
     3C24 9F9C 
     3C26 9C80 
0399 3C28 0101     PAT133 DATA >0101,>E1F1,>F939,>3971
     3C2A E1F1 
     3C2C F939 
     3C2E 3971 
0400 3C30 007F     PAT134 DATA >007F,>7E7E,>7E7E,>7E7E
     3C32 7E7E 
     3C34 7E7E 
     3C36 7E7E 
0401 3C38 01FE     PAT135 DATA >01FE,>7E7E,>7E7E,>7E7E
     3C3A 7E7E 
     3C3C 7E7E 
     3C3E 7E7E 
0402 3C40 7F7F     PAT136 DATA >7F7F,>7F7F,>7F7F,>7F80
     3C42 7F7F 
     3C44 7F7F 
     3C46 7F80 
0403 3C48 FAFE     PAT137 DATA >FAFE,>FAFA,>FA42,>FE00
     3C4A FAFA 
     3C4C FA42 
     3C4E FE00 
0404 3C50 F6F9     PAT138 DATA >F6F9,>1FE6,>F91E,>E7F8
     3C52 1FE6 
     3C54 F91E 
     3C56 E7F8 
0405 3C58 E37C     PAT139 DATA >E37C,>976B,>FCCF,>36F9
     3C5A 976B 
     3C5C FCCF 
     3C5E 36F9 
0406 3C60 8081     PAT140 DATA >8081,>8180,>8181,>8080
     3C62 8180 
     3C64 8181 
     3C66 8080 
0407 3C68 E1C1     PAT141 DATA >E1C1,>C101,>C1C1,>0101
     3C6A C101 
     3C6C C1C1 
     3C6E 0101 
0408 3C70 7E7E     PAT142 DATA >7E7E,>7E7E,>7E7E,>7F7F
     3C72 7E7E 
     3C74 7E7E 
     3C76 7F7F 
0409 3C78 7E7E     PAT143 DATA >7E7E,>7E7E,>7E7E,>FEFF
     3C7A 7E7E 
     3C7C 7E7E 
     3C7E FEFF 
0410 3C80 FF7F     PAT144 DATA >FF7F,>7E7D,>7B77,>637B
     3C82 7E7D 
     3C84 7B77 
     3C86 637B 
0411 3C88 FFFE     PAT145 DATA >FFFE,>7EBE,>DEEE,>C6DE
     3C8A 7EBE 
     3C8C DEEE 
     3C8E C6DE 
0412 3C90 F0F0     PAT146 DATA >F0F0,>F0F0,>0F0F,>0F0F
     3C92 F0F0 
     3C94 0F0F 
     3C96 0F0F 
0413 3C98 F0F0     PAT147 DATA >F0F0,>F0F0,>0F0F,>0F0F
     3C9A F0F0 
     3C9C 0F0F 
     3C9E 0F0F 
0414 3CA0 0000     PAT148 DATA >0000,>0000,>0000,>6060
     3CA2 0000 
     3CA4 0000 
     3CA6 6060 
0415 3CA8 0000     PAT149 DATA >0000,>6090,>9060,>0078
     3CAA 6090 
     3CAC 9060 
     3CAE 0078 
0416 3CB0 0002     PAT150 DATA >0002,>0000,>0020,>0000
     3CB2 0000 
     3CB4 0020 
     3CB6 0000 
0417 3CB8 0004     PAT151 DATA >0004,>0000,>0000,>1000
     3CBA 0000 
     3CBC 0000 
     3CBE 1000 
0418 3CC0 7B7B     PAT152 DATA >7B7B,>7B7B,>7B78,>7F80
     3CC2 7B7B 
     3CC4 7B78 
     3CC6 7F80 
0419 3CC8 DEDE     PAT153 DATA >DEDE,>DEDE,>DE1E,>FE00
     3CCA DEDE 
     3CCC DE1E 
     3CCE FE00 
0420 3CD0 F0F0     PAT154 DATA >F0F0,>F0F0,>0F0F,>0F0F
     3CD2 F0F0 
     3CD4 0F0F 
     3CD6 0F0F 
0421 3CD8 F0F0     PAT155 DATA >F0F0,>F0F0,>0F0F,>0F0F
     3CDA F0F0 
     3CDC 0F0F 
     3CDE 0F0F 
0422 3CE0 0001     PAT156 DATA >0001,>0F10,>1010,>100F
     3CE2 0F10 
     3CE4 1010 
     3CE6 100F 
0423 3CE8 8402     PAT157 DATA >8402,>0282,>8284,>F800
     3CEA 0282 
     3CEC 8284 
     3CEE F800 
0424 3CF0 0002     PAT158 DATA >0002,>0000,>0020,>0000
     3CF2 0000 
     3CF4 0020 
     3CF6 0000 
0425 3CF8 0004     PAT159 DATA >0004,>0000,>0000,>1000
     3CFA 0000 
     3CFC 0000 
     3CFE 1000 
0426 3D00 FF7F     PAT160 DATA >FF7F,>425F,>5F5F,>7F5F
     3D02 425F 
     3D04 5F5F 
     3D06 7F5F 
0427 3D08 FFFE     PAT161 DATA >FFFE,>FEFE,>FEFE,>FEFE
     3D0A FEFE 
     3D0C FEFE 
     3D0E FEFE 
0428 3D10 A7DB     PAT162 DATA >A7DB,>7C87,>F93E,>D9E7
     3D12 7C87 
     3D14 F93E 
     3D16 D9E7 
0429 3D18 FFCC     PAT163 DATA >FFCC,>33FF,>CF31,>FECF
     3D1A 33FF 
     3D1C CF31 
     3D1E FECF 
0430 3D20 8080     PAT164 DATA >8080,>878F,>9F9C,>9C80
     3D22 878F 
     3D24 9F9C 
     3D26 9C80 
0431 3D28 0101     PAT165 DATA >0101,>E1F1,>F939,>3971
     3D2A E1F1 
     3D2C F939 
     3D2E 3971 
0432 3D30 007F     PAT166 DATA >007F,>7C7C,>7979,>7979
     3D32 7C7C 
     3D34 7979 
     3D36 7979 
0433 3D38 01FE     PAT167 DATA >01FE,>3E3E,>1E1E,>1E1E
     3D3A 3E3E 
     3D3C 1E1E 
     3D3E 1E1E 
0434 3D40 7F7F     PAT168 DATA >7F7F,>7F7F,>7F7F,>7F80
     3D42 7F7F 
     3D44 7F7F 
     3D46 7F80 
0435 3D48 FAFE     PAT169 DATA >FAFE,>FAFA,>FA42,>FE00
     3D4A FAFA 
     3D4C FA42 
     3D4E FE00 
0436 3D50 FB7C     PAT170 DATA >FB7C,>8FF3,>FC0F,>F37C
     3D52 8FF3 
     3D54 FC0F 
     3D56 F37C 
0437 3D58 B17E     PAT171 DATA >B17E,>CBB5,>7EE7,>1BFC
     3D5A CBB5 
     3D5C 7EE7 
     3D5E 1BFC 
0438 3D60 8081     PAT172 DATA >8081,>8180,>8181,>8080
     3D62 8180 
     3D64 8181 
     3D66 8080 
0439 3D68 E1C1     PAT173 DATA >E1C1,>C101,>C1C1,>0101
     3D6A C101 
     3D6C C1C1 
     3D6E 0101 
0440 3D70 7979     PAT174 DATA >7979,>7979,>7C7C,>7F7F
     3D72 7979 
     3D74 7C7C 
     3D76 7F7F 
0441 3D78 1E1E     PAT175 DATA >1E1E,>1E1E,>3E3E,>FEFF
     3D7A 1E1E 
     3D7C 3E3E 
     3D7E FEFF 
0442 3D80 FF7F     PAT176 DATA >FF7F,>7E7D,>7B77,>637B
     3D82 7E7D 
     3D84 7B77 
     3D86 637B 
0443 3D88 FFFE     PAT177 DATA >FFFE,>7EBE,>DEEE,>C6DE
     3D8A 7EBE 
     3D8C DEEE 
     3D8E C6DE 
0444 3D90 E1E1     PAT178 DATA >E1E1,>E1E1,>1E1E,>1E1E
     3D92 E1E1 
     3D94 1E1E 
     3D96 1E1E 
0445 3D98 E1E1     PAT179 DATA >E1E1,>E1E1,>1E1E,>1E1E
     3D9A E1E1 
     3D9C 1E1E 
     3D9E 1E1E 
0446 3DA0 0F00     PAT180 DATA >0F00,>0101,>0161,>9090
     3DA2 0101 
     3DA4 0161 
     3DA6 9090 
0447 3DA8 00F0     PAT181 DATA >00F0,>0808,>0808,>F000
     3DAA 0808 
     3DAC 0808 
     3DAE F000 
0448 3DB0 0200     PAT182 DATA >0200,>0000,>2000,>0000
     3DB2 0000 
     3DB4 2000 
     3DB6 0000 
0449 3DB8 0400     PAT183 DATA >0400,>0000,>0010,>0000
     3DBA 0000 
     3DBC 0010 
     3DBE 0000 
0450 3DC0 7B7B     PAT184 DATA >7B7B,>7B7B,>7B78,>7F80
     3DC2 7B7B 
     3DC4 7B78 
     3DC6 7F80 
0451 3DC8 DEDE     PAT185 DATA >DEDE,>DEDE,>DE1E,>FE00
     3DCA DEDE 
     3DCC DE1E 
     3DCE FE00 
0452 3DD0 E1E1     PAT186 DATA >E1E1,>E1E1,>1E1E,>1E1E
     3DD2 E1E1 
     3DD4 1E1E 
     3DD6 1E1E 
0453 3DD8 E1E1     PAT187 DATA >E1E1,>E1E1,>1E1E,>1E1E
     3DDA E1E1 
     3DDC 1E1E 
     3DDE 1E1E 
0454 3DE0 600F     PAT188 DATA >600F,>1020,>2020,>2010
     3DE2 1020 
     3DE4 2020 
     3DE6 2010 
0455 3DE8 0000     PAT189 DATA >0000,>8040,>4046,>4680
     3DEA 8040 
     3DEC 4046 
     3DEE 4680 
0456 3DF0 0200     PAT190 DATA >0200,>0000,>2000,>0000
     3DF2 0000 
     3DF4 2000 
     3DF6 0000 
0457 3DF8 0400     PAT191 DATA >0400,>0000,>0010,>0000
     3DFA 0000 
     3DFC 0010 
     3DFE 0000 
0458 3E00 FF7F     PAT192 DATA >FF7F,>425F,>5F5F,>7F5F
     3E02 425F 
     3E04 5F5F 
     3E06 7F5F 
0459 3E08 FFFE     PAT193 DATA >FFFE,>FEFE,>FEFE,>FEFE
     3E0A FEFE 
     3E0C FEFE 
     3E0E FEFE 
0460 3E10 D3ED     PAT194 DATA >D3ED,>3EC3,>FC1F,>ECF3
     3E12 3EC3 
     3E14 FC1F 
     3E16 ECF3 
0461 3E18 FF66     PAT195 DATA >FF66,>99FF,>6798,>7FE7
     3E1A 99FF 
     3E1C 6798 
     3E1E 7FE7 
0462 3E20 8080     PAT196 DATA >8080,>878F,>9F9C,>9C80
     3E22 878F 
     3E24 9F9C 
     3E26 9C80 
0463 3E28 0101     PAT197 DATA >0101,>E1F1,>F939,>3971
     3E2A E1F1 
     3E2C F939 
     3E2E 3971 
0464 3E30 007F     PAT198 DATA >007F,>7C78,>7971,>7171
     3E32 7C78 
     3E34 7971 
     3E36 7171 
0465 3E38 01FE     PAT199 DATA >01FE,>3E1E,>1E0E,>0E0E
     3E3A 3E1E 
     3E3C 1E0E 
     3E3E 0E0E 
0466 3E40 7F7F     PAT200 DATA >7F7F,>7F7F,>7F7F,>7F80
     3E42 7F7F 
     3E44 7F7F 
     3E46 7F80 
0467 3E48 FAFE     PAT201 DATA >FAFE,>FAFA,>FA42,>FE00
     3E4A FAFA 
     3E4C FA42 
     3E4E FE00 
0468 3E50 FD3E     PAT202 DATA >FD3E,>C7F9,>7E87,>F93E
     3E52 C7F9 
     3E54 7E87 
     3E56 F93E 
0469 3E58 D83F     PAT203 DATA >D83F,>E5DA,>3FF3,>8D7E
     3E5A E5DA 
     3E5C 3FF3 
     3E5E 8D7E 
0470 3E60 8081     PAT204 DATA >8081,>8180,>8181,>8080
     3E62 8180 
     3E64 8181 
     3E66 8080 
0471 3E68 E1C1     PAT205 DATA >E1C1,>C101,>C1C1,>0101
     3E6A C101 
     3E6C C1C1 
     3E6E 0101 
0472 3E70 7171     PAT206 DATA >7171,>7179,>787C,>7F7F
     3E72 7179 
     3E74 787C 
     3E76 7F7F 
0473 3E78 0E0E     PAT207 DATA >0E0E,>0E1E,>1E3E,>FEFF
     3E7A 0E1E 
     3E7C 1E3E 
     3E7E FEFF 
0474 3E80 FF7F     PAT208 DATA >FF7F,>7E7D,>7B77,>637B
     3E82 7E7D 
     3E84 7B77 
     3E86 637B 
0475 3E88 FFFE     PAT209 DATA >FFFE,>7EBE,>DEEE,>C6DE
     3E8A 7EBE 
     3E8C DEEE 
     3E8E C6DE 
0476 3E90 C3C3     PAT210 DATA >C3C3,>C3C3,>3C3C,>3C3C
     3E92 C3C3 
     3E94 3C3C 
     3E96 3C3C 
0477 3E98 C3C3     PAT211 DATA >C3C3,>C3C3,>3C3C,>3C3C
     3E9A C3C3 
     3E9C 3C3C 
     3E9E 3C3C 
0478 3EA0 0001     PAT212 DATA >0001,>0202,>F20A,>0908
     3EA2 0202 
     3EA4 F20A 
     3EA6 0908 
0479 3EA8 F008     PAT213 DATA >F008,>0404,>0405,>09F1
     3EAA 0404 
     3EAC 0405 
     3EAE 09F1 
0480 3EB0 0000     PAT214 DATA >0000,>0020,>0000,>0002
     3EB2 0020 
     3EB4 0000 
     3EB6 0002 
0481 3EB8 0000     PAT215 DATA >0000,>0000,>1000,>0004
     3EBA 0000 
     3EBC 1000 
     3EBE 0004 
0482 3EC0 7B7B     PAT216 DATA >7B7B,>7B7B,>7B78,>7F80
     3EC2 7B7B 
     3EC4 7B78 
     3EC6 7F80 
0483 3EC8 DEDE     PAT217 DATA >DEDE,>DEDE,>DE1E,>FE00
     3ECA DEDE 
     3ECC DE1E 
     3ECE FE00 
0484 3ED0 C3C3     PAT218 DATA >C3C3,>C3C3,>3C3C,>3C3C
     3ED2 C3C3 
     3ED4 3C3C 
     3ED6 3C3C 
0485 3ED8 C3C3     PAT219 DATA >C3C3,>C3C3,>3C3C,>3C3C
     3EDA C3C3 
     3EDC 3C3C 
     3EDE 3C3C 
0486 3EE0 08F0     PAT220 DATA >08F0,>0006,>0600,>0000
     3EE2 0006 
     3EE4 0600 
     3EE6 0000 
0487 3EE8 0100     PAT221 DATA >0100,>0000,>0609,>0906
     3EEA 0000 
     3EEC 0609 
     3EEE 0906 
0488 3EF0 0000     PAT222 DATA >0000,>0020,>0000,>0002
     3EF2 0020 
     3EF4 0000 
     3EF6 0002 
0489 3EF8 0000     PAT223 DATA >0000,>0000,>1000,>0004
     3EFA 0000 
     3EFC 1000 
     3EFE 0004 
0490 3F00 FF7F     PAT224 DATA >FF7F,>425F,>5F5F,>7F5F
     3F02 425F 
     3F04 5F5F 
     3F06 7F5F 
0491 3F08 FFFE     PAT225 DATA >FFFE,>FEFE,>FEFE,>FEFE
     3F0A FEFE 
     3F0C FEFE 
     3F0E FEFE 
0492 3F10 F9E6     PAT226 DATA >F9E6,>1FE1,>FE8F,>76F9
     3F12 1FE1 
     3F14 FE8F 
     3F16 76F9 
0493 3F18 FF33     PAT227 DATA >FF33,>CCFF,>F30C,>FFF3
     3F1A CCFF 
     3F1C F30C 
     3F1E FFF3 
0494 3F20 8080     PAT228 DATA >8080,>878F,>9F9C,>9C80
     3F22 878F 
     3F24 9F9C 
     3F26 9C80 
0495 3F28 0101     PAT229 DATA >0101,>E1F1,>F939,>3971
     3F2A E1F1 
     3F2C F939 
     3F2E 3971 
0496 3F30 007F     PAT230 DATA >007F,>7870,>7161,>6161
     3F32 7870 
     3F34 7161 
     3F36 6161 
0497 3F38 01FE     PAT231 DATA >01FE,>3E0E,>8E86,>8686
     3F3A 3E0E 
     3F3C 8E86 
     3F3E 8686 
0498 3F40 7F7F     PAT232 DATA >7F7F,>7F7F,>7F7F,>7F80
     3F42 7F7F 
     3F44 7F7F 
     3F46 7F80 
0499 3F48 FAFE     PAT233 DATA >FAFE,>FAFA,>FA42,>FE00
     3F4A FAFA 
     3F4C FA42 
     3F4E FE00 
0500 3F50 FE1F     PAT234 DATA >FE1F,>E3FC,>3FC3,>FC1F
     3F52 E3FC 
     3F54 3FC3 
     3F56 FC1F 
0501 3F58 6C9F     PAT235 DATA >6C9F,>F36C,>9FF9,>C63F
     3F5A F36C 
     3F5C 9FF9 
     3F5E C63F 
0502 3F60 8081     PAT236 DATA >8081,>8180,>8181,>8080
     3F62 8180 
     3F64 8181 
     3F66 8080 
0503 3F68 E1C1     PAT237 DATA >E1C1,>C101,>C1C1,>0101
     3F6A C101 
     3F6C C1C1 
     3F6E 0101 
0504 3F70 6161     PAT238 DATA >6161,>6170,>707C,>7F7F
     3F72 6170 
     3F74 707C 
     3F76 7F7F 
0505 3F78 8686     PAT239 DATA >8686,>860E,>0E3E,>FEFF
     3F7A 860E 
     3F7C 0E3E 
     3F7E FEFF 
0506 3F80 FF7F     PAT240 DATA >FF7F,>7E7D,>7B77,>637B
     3F82 7E7D 
     3F84 7B77 
     3F86 637B 
0507 3F88 FFFE     PAT241 DATA >FFFE,>7EBE,>DEEE,>C6DE
     3F8A 7EBE 
     3F8C DEEE 
     3F8E C6DE 
0508 3F90 8787     PAT242 DATA >8787,>8787,>7878,>7878
     3F92 8787 
     3F94 7878 
     3F96 7878 
0509 3F98 8787     PAT243 DATA >8787,>8787,>7878,>7878
     3F9A 8787 
     3F9C 7878 
     3F9E 7878 
0510 3FA0 0000     PAT244 DATA >0000,>00F0,>0804,>0404
     3FA2 00F0 
     3FA4 0804 
     3FA6 0404 
0511 3FA8 0F00     PAT245 DATA >0F00,>0000,>6162,>0202
     3FAA 0000 
     3FAC 6162 
     3FAE 0202 
0512 3FB0 0000     PAT246 DATA >0000,>2000,>0000,>0200
     3FB2 2000 
     3FB4 0000 
     3FB6 0200 
0513 3FB8 0000     PAT247 DATA >0000,>0010,>0000,>0400
     3FBA 0010 
     3FBC 0000 
     3FBE 0400 
0514 3FC0 7B7B     PAT248 DATA >7B7B,>7B7B,>7B78,>7F80
     3FC2 7B7B 
     3FC4 7B78 
     3FC6 7F80 
0515 3FC8 DEDE     PAT249 DATA >DEDE,>DEDE,>DE1E,>FE00
     3FCA DEDE 
     3FCC DE1E 
     3FCE FE00 
0516 3FD0 8787     PAT250 DATA >8787,>8787,>7878,>7878
     3FD2 8787 
     3FD4 7878 
     3FD6 7878 
0517 3FD8 8787     PAT251 DATA >8787,>8787,>7878,>7878
     3FDA 8787 
     3FDC 7878 
     3FDE 7878 
0518 3FE0 0408     PAT252 DATA >0408,>F609,>8986,>8080
     3FE2 F609 
     3FE4 8986 
     3FE6 8080 
0519 3FE8 0201     PAT253 DATA >0201,>000F,>1010,>1010
     3FEA 000F 
     3FEC 1010 
     3FEE 1010 
0520 3FF0 0000     PAT254 DATA >0000,>2000,>0000,>0200
     3FF2 2000 
     3FF4 0000 
     3FF6 0200 
0521 3FF8 0000     PAT255 DATA >0000,>0010,>0000,>0400
     3FFA 0010 
     3FFC 0000 
     3FFE 0400 
0522               
0523               * End
0524               
**** **** ****     > bouncy.a99
3508               
3509                      END  START
